ARM GAS  /tmp/ccaxJLwg.s 			page 1


   1              		.syntax unified
   2              		.cpu cortex-m4
   3              		.eabi_attribute 27, 1
   4              		.eabi_attribute 28, 1
   5              		.fpu fpv4-sp-d16
   6              		.eabi_attribute 20, 1
   7              		.eabi_attribute 21, 1
   8              		.eabi_attribute 23, 3
   9              		.eabi_attribute 24, 1
  10              		.eabi_attribute 25, 1
  11              		.eabi_attribute 26, 1
  12              		.eabi_attribute 30, 1
  13              		.eabi_attribute 34, 1
  14              		.eabi_attribute 18, 4
  15              		.thumb
  16              		.syntax unified
  17              		.file	"stm32f3xx_hal_msp.c"
  18              		.text
  19              	.Ltext0:
  20              		.cfi_sections	.debug_frame
  21              		.section	.text.HAL_MspInit,"ax",%progbits
  22              		.align	2
  23              		.global	HAL_MspInit
  24              		.thumb
  25              		.thumb_func
  27              	HAL_MspInit:
  28              	.LFB124:
  29              		.file 1 "Src/stm32f3xx_hal_msp.c"
   1:Src/stm32f3xx_hal_msp.c **** /**
   2:Src/stm32f3xx_hal_msp.c ****   ******************************************************************************
   3:Src/stm32f3xx_hal_msp.c ****   * File Name          : stm32f3xx_hal_msp.c
   4:Src/stm32f3xx_hal_msp.c ****   * Description        : This file provides code for the MSP Initialization 
   5:Src/stm32f3xx_hal_msp.c ****   *                      and de-Initialization codes.
   6:Src/stm32f3xx_hal_msp.c ****   ******************************************************************************
   7:Src/stm32f3xx_hal_msp.c ****   * This notice applies to any and all portions of this file
   8:Src/stm32f3xx_hal_msp.c ****   * that are not between comment pairs USER CODE BEGIN and
   9:Src/stm32f3xx_hal_msp.c ****   * USER CODE END. Other portions of this file, whether 
  10:Src/stm32f3xx_hal_msp.c ****   * inserted by the user or by software development tools
  11:Src/stm32f3xx_hal_msp.c ****   * are owned by their respective copyright owners.
  12:Src/stm32f3xx_hal_msp.c ****   *
  13:Src/stm32f3xx_hal_msp.c ****   * Copyright (c) 2017 STMicroelectronics International N.V. 
  14:Src/stm32f3xx_hal_msp.c ****   * All rights reserved.
  15:Src/stm32f3xx_hal_msp.c ****   *
  16:Src/stm32f3xx_hal_msp.c ****   * Redistribution and use in source and binary forms, with or without 
  17:Src/stm32f3xx_hal_msp.c ****   * modification, are permitted, provided that the following conditions are met:
  18:Src/stm32f3xx_hal_msp.c ****   *
  19:Src/stm32f3xx_hal_msp.c ****   * 1. Redistribution of source code must retain the above copyright notice, 
  20:Src/stm32f3xx_hal_msp.c ****   *    this list of conditions and the following disclaimer.
  21:Src/stm32f3xx_hal_msp.c ****   * 2. Redistributions in binary form must reproduce the above copyright notice,
  22:Src/stm32f3xx_hal_msp.c ****   *    this list of conditions and the following disclaimer in the documentation
  23:Src/stm32f3xx_hal_msp.c ****   *    and/or other materials provided with the distribution.
  24:Src/stm32f3xx_hal_msp.c ****   * 3. Neither the name of STMicroelectronics nor the names of other 
  25:Src/stm32f3xx_hal_msp.c ****   *    contributors to this software may be used to endorse or promote products 
  26:Src/stm32f3xx_hal_msp.c ****   *    derived from this software without specific written permission.
  27:Src/stm32f3xx_hal_msp.c ****   * 4. This software, including modifications and/or derivative works of this 
  28:Src/stm32f3xx_hal_msp.c ****   *    software, must execute solely and exclusively on microcontroller or
  29:Src/stm32f3xx_hal_msp.c ****   *    microprocessor devices manufactured by or for STMicroelectronics.
ARM GAS  /tmp/ccaxJLwg.s 			page 2


  30:Src/stm32f3xx_hal_msp.c ****   * 5. Redistribution and use of this software other than as permitted under 
  31:Src/stm32f3xx_hal_msp.c ****   *    this license is void and will automatically terminate your rights under 
  32:Src/stm32f3xx_hal_msp.c ****   *    this license. 
  33:Src/stm32f3xx_hal_msp.c ****   *
  34:Src/stm32f3xx_hal_msp.c ****   * THIS SOFTWARE IS PROVIDED BY STMICROELECTRONICS AND CONTRIBUTORS "AS IS" 
  35:Src/stm32f3xx_hal_msp.c ****   * AND ANY EXPRESS, IMPLIED OR STATUTORY WARRANTIES, INCLUDING, BUT NOT 
  36:Src/stm32f3xx_hal_msp.c ****   * LIMITED TO, THE IMPLIED WARRANTIES OF MERCHANTABILITY, FITNESS FOR A 
  37:Src/stm32f3xx_hal_msp.c ****   * PARTICULAR PURPOSE AND NON-INFRINGEMENT OF THIRD PARTY INTELLECTUAL PROPERTY
  38:Src/stm32f3xx_hal_msp.c ****   * RIGHTS ARE DISCLAIMED TO THE FULLEST EXTENT PERMITTED BY LAW. IN NO EVENT 
  39:Src/stm32f3xx_hal_msp.c ****   * SHALL STMICROELECTRONICS OR CONTRIBUTORS BE LIABLE FOR ANY DIRECT, INDIRECT,
  40:Src/stm32f3xx_hal_msp.c ****   * INCIDENTAL, SPECIAL, EXEMPLARY, OR CONSEQUENTIAL DAMAGES (INCLUDING, BUT NOT
  41:Src/stm32f3xx_hal_msp.c ****   * LIMITED TO, PROCUREMENT OF SUBSTITUTE GOODS OR SERVICES; LOSS OF USE, DATA, 
  42:Src/stm32f3xx_hal_msp.c ****   * OR PROFITS; OR BUSINESS INTERRUPTION) HOWEVER CAUSED AND ON ANY THEORY OF 
  43:Src/stm32f3xx_hal_msp.c ****   * LIABILITY, WHETHER IN CONTRACT, STRICT LIABILITY, OR TORT (INCLUDING 
  44:Src/stm32f3xx_hal_msp.c ****   * NEGLIGENCE OR OTHERWISE) ARISING IN ANY WAY OUT OF THE USE OF THIS SOFTWARE,
  45:Src/stm32f3xx_hal_msp.c ****   * EVEN IF ADVISED OF THE POSSIBILITY OF SUCH DAMAGE.
  46:Src/stm32f3xx_hal_msp.c ****   *
  47:Src/stm32f3xx_hal_msp.c ****   ******************************************************************************
  48:Src/stm32f3xx_hal_msp.c ****   */
  49:Src/stm32f3xx_hal_msp.c **** /* Includes ------------------------------------------------------------------*/
  50:Src/stm32f3xx_hal_msp.c **** #include "stm32f3xx_hal.h"
  51:Src/stm32f3xx_hal_msp.c **** 
  52:Src/stm32f3xx_hal_msp.c **** extern void _Error_Handler(char *, int);
  53:Src/stm32f3xx_hal_msp.c **** /* USER CODE BEGIN 0 */
  54:Src/stm32f3xx_hal_msp.c **** 
  55:Src/stm32f3xx_hal_msp.c **** /* USER CODE END 0 */
  56:Src/stm32f3xx_hal_msp.c **** /**
  57:Src/stm32f3xx_hal_msp.c ****   * Initializes the Global MSP.
  58:Src/stm32f3xx_hal_msp.c ****   */
  59:Src/stm32f3xx_hal_msp.c **** void HAL_MspInit(void)
  60:Src/stm32f3xx_hal_msp.c **** {
  30              		.loc 1 60 0
  31              		.cfi_startproc
  32              		@ args = 0, pretend = 0, frame = 8
  33              		@ frame_needed = 0, uses_anonymous_args = 0
  34 0000 00B5     		push	{lr}
  35              	.LCFI0:
  36              		.cfi_def_cfa_offset 4
  37              		.cfi_offset 14, -4
  38 0002 83B0     		sub	sp, sp, #12
  39              	.LCFI1:
  40              		.cfi_def_cfa_offset 16
  41              	.LBB2:
  61:Src/stm32f3xx_hal_msp.c ****   /* USER CODE BEGIN MspInit 0 */
  62:Src/stm32f3xx_hal_msp.c **** 
  63:Src/stm32f3xx_hal_msp.c ****   /* USER CODE END MspInit 0 */
  64:Src/stm32f3xx_hal_msp.c **** 
  65:Src/stm32f3xx_hal_msp.c ****   __HAL_RCC_SYSCFG_CLK_ENABLE();
  42              		.loc 1 65 0
  43 0004 1C4B     		ldr	r3, .L3
  44 0006 9A69     		ldr	r2, [r3, #24]
  45 0008 42F00102 		orr	r2, r2, #1
  46 000c 9A61     		str	r2, [r3, #24]
  47 000e 9B69     		ldr	r3, [r3, #24]
  48 0010 03F00103 		and	r3, r3, #1
  49 0014 0193     		str	r3, [sp, #4]
  50 0016 019B     		ldr	r3, [sp, #4]
ARM GAS  /tmp/ccaxJLwg.s 			page 3


  51              	.LBE2:
  66:Src/stm32f3xx_hal_msp.c **** 
  67:Src/stm32f3xx_hal_msp.c ****   HAL_NVIC_SetPriorityGrouping(NVIC_PRIORITYGROUP_4);
  52              		.loc 1 67 0
  53 0018 0320     		movs	r0, #3
  54 001a FFF7FEFF 		bl	HAL_NVIC_SetPriorityGrouping
  55              	.LVL0:
  68:Src/stm32f3xx_hal_msp.c **** 
  69:Src/stm32f3xx_hal_msp.c ****   /* System interrupt init*/
  70:Src/stm32f3xx_hal_msp.c ****   /* MemoryManagement_IRQn interrupt configuration */
  71:Src/stm32f3xx_hal_msp.c ****   HAL_NVIC_SetPriority(MemoryManagement_IRQn, 0, 0);
  56              		.loc 1 71 0
  57 001e 0022     		movs	r2, #0
  58 0020 1146     		mov	r1, r2
  59 0022 6FF00B00 		mvn	r0, #11
  60 0026 FFF7FEFF 		bl	HAL_NVIC_SetPriority
  61              	.LVL1:
  72:Src/stm32f3xx_hal_msp.c ****   /* BusFault_IRQn interrupt configuration */
  73:Src/stm32f3xx_hal_msp.c ****   HAL_NVIC_SetPriority(BusFault_IRQn, 0, 0);
  62              		.loc 1 73 0
  63 002a 0022     		movs	r2, #0
  64 002c 1146     		mov	r1, r2
  65 002e 6FF00A00 		mvn	r0, #10
  66 0032 FFF7FEFF 		bl	HAL_NVIC_SetPriority
  67              	.LVL2:
  74:Src/stm32f3xx_hal_msp.c ****   /* UsageFault_IRQn interrupt configuration */
  75:Src/stm32f3xx_hal_msp.c ****   HAL_NVIC_SetPriority(UsageFault_IRQn, 0, 0);
  68              		.loc 1 75 0
  69 0036 0022     		movs	r2, #0
  70 0038 1146     		mov	r1, r2
  71 003a 6FF00900 		mvn	r0, #9
  72 003e FFF7FEFF 		bl	HAL_NVIC_SetPriority
  73              	.LVL3:
  76:Src/stm32f3xx_hal_msp.c ****   /* SVCall_IRQn interrupt configuration */
  77:Src/stm32f3xx_hal_msp.c ****   HAL_NVIC_SetPriority(SVCall_IRQn, 0, 0);
  74              		.loc 1 77 0
  75 0042 0022     		movs	r2, #0
  76 0044 1146     		mov	r1, r2
  77 0046 6FF00400 		mvn	r0, #4
  78 004a FFF7FEFF 		bl	HAL_NVIC_SetPriority
  79              	.LVL4:
  78:Src/stm32f3xx_hal_msp.c ****   /* DebugMonitor_IRQn interrupt configuration */
  79:Src/stm32f3xx_hal_msp.c ****   HAL_NVIC_SetPriority(DebugMonitor_IRQn, 0, 0);
  80              		.loc 1 79 0
  81 004e 0022     		movs	r2, #0
  82 0050 1146     		mov	r1, r2
  83 0052 6FF00300 		mvn	r0, #3
  84 0056 FFF7FEFF 		bl	HAL_NVIC_SetPriority
  85              	.LVL5:
  80:Src/stm32f3xx_hal_msp.c ****   /* PendSV_IRQn interrupt configuration */
  81:Src/stm32f3xx_hal_msp.c ****   HAL_NVIC_SetPriority(PendSV_IRQn, 15, 0);
  86              		.loc 1 81 0
  87 005a 0022     		movs	r2, #0
  88 005c 0F21     		movs	r1, #15
  89 005e 6FF00100 		mvn	r0, #1
  90 0062 FFF7FEFF 		bl	HAL_NVIC_SetPriority
  91              	.LVL6:
ARM GAS  /tmp/ccaxJLwg.s 			page 4


  82:Src/stm32f3xx_hal_msp.c ****   /* SysTick_IRQn interrupt configuration */
  83:Src/stm32f3xx_hal_msp.c ****   HAL_NVIC_SetPriority(SysTick_IRQn, 15, 0);
  92              		.loc 1 83 0
  93 0066 0022     		movs	r2, #0
  94 0068 0F21     		movs	r1, #15
  95 006a 4FF0FF30 		mov	r0, #-1
  96 006e FFF7FEFF 		bl	HAL_NVIC_SetPriority
  97              	.LVL7:
  84:Src/stm32f3xx_hal_msp.c **** 
  85:Src/stm32f3xx_hal_msp.c ****   /* USER CODE BEGIN MspInit 1 */
  86:Src/stm32f3xx_hal_msp.c **** 
  87:Src/stm32f3xx_hal_msp.c ****   /* USER CODE END MspInit 1 */
  88:Src/stm32f3xx_hal_msp.c **** }
  98              		.loc 1 88 0
  99 0072 03B0     		add	sp, sp, #12
 100              	.LCFI2:
 101              		.cfi_def_cfa_offset 4
 102              		@ sp needed
 103 0074 5DF804FB 		ldr	pc, [sp], #4
 104              	.L4:
 105              		.align	2
 106              	.L3:
 107 0078 00100240 		.word	1073876992
 108              		.cfi_endproc
 109              	.LFE124:
 111              		.section	.text.HAL_TIM_PWM_MspInit,"ax",%progbits
 112              		.align	2
 113              		.global	HAL_TIM_PWM_MspInit
 114              		.thumb
 115              		.thumb_func
 117              	HAL_TIM_PWM_MspInit:
 118              	.LFB125:
  89:Src/stm32f3xx_hal_msp.c **** 
  90:Src/stm32f3xx_hal_msp.c **** void HAL_TIM_PWM_MspInit(TIM_HandleTypeDef* htim_pwm)
  91:Src/stm32f3xx_hal_msp.c **** {
 119              		.loc 1 91 0
 120              		.cfi_startproc
 121              		@ args = 0, pretend = 0, frame = 8
 122              		@ frame_needed = 0, uses_anonymous_args = 0
 123              		@ link register save eliminated.
 124              	.LVL8:
  92:Src/stm32f3xx_hal_msp.c **** 
  93:Src/stm32f3xx_hal_msp.c ****   if(htim_pwm->Instance==TIM3)
 125              		.loc 1 93 0
 126 0000 0268     		ldr	r2, [r0]
 127 0002 084B     		ldr	r3, .L10
 128 0004 9A42     		cmp	r2, r3
 129 0006 0CD1     		bne	.L9
  91:Src/stm32f3xx_hal_msp.c **** 
 130              		.loc 1 91 0
 131 0008 82B0     		sub	sp, sp, #8
 132              	.LCFI3:
 133              		.cfi_def_cfa_offset 8
 134              	.LBB3:
  94:Src/stm32f3xx_hal_msp.c ****   {
  95:Src/stm32f3xx_hal_msp.c ****   /* USER CODE BEGIN TIM3_MspInit 0 */
  96:Src/stm32f3xx_hal_msp.c **** 
ARM GAS  /tmp/ccaxJLwg.s 			page 5


  97:Src/stm32f3xx_hal_msp.c ****   /* USER CODE END TIM3_MspInit 0 */
  98:Src/stm32f3xx_hal_msp.c ****     /* Peripheral clock enable */
  99:Src/stm32f3xx_hal_msp.c ****     __HAL_RCC_TIM3_CLK_ENABLE();
 135              		.loc 1 99 0
 136 000a 03F50333 		add	r3, r3, #134144
 137 000e DA69     		ldr	r2, [r3, #28]
 138 0010 42F00202 		orr	r2, r2, #2
 139 0014 DA61     		str	r2, [r3, #28]
 140 0016 DB69     		ldr	r3, [r3, #28]
 141 0018 03F00203 		and	r3, r3, #2
 142 001c 0193     		str	r3, [sp, #4]
 143 001e 019B     		ldr	r3, [sp, #4]
 144              	.LBE3:
 100:Src/stm32f3xx_hal_msp.c ****   /* USER CODE BEGIN TIM3_MspInit 1 */
 101:Src/stm32f3xx_hal_msp.c **** 
 102:Src/stm32f3xx_hal_msp.c ****   /* USER CODE END TIM3_MspInit 1 */
 103:Src/stm32f3xx_hal_msp.c ****   }
 104:Src/stm32f3xx_hal_msp.c **** 
 105:Src/stm32f3xx_hal_msp.c **** }
 145              		.loc 1 105 0
 146 0020 02B0     		add	sp, sp, #8
 147              	.LCFI4:
 148              		.cfi_def_cfa_offset 0
 149              		@ sp needed
 150              	.L9:
 151 0022 7047     		bx	lr
 152              	.L11:
 153              		.align	2
 154              	.L10:
 155 0024 00040040 		.word	1073742848
 156              		.cfi_endproc
 157              	.LFE125:
 159              		.section	.text.HAL_TIM_Base_MspInit,"ax",%progbits
 160              		.align	2
 161              		.global	HAL_TIM_Base_MspInit
 162              		.thumb
 163              		.thumb_func
 165              	HAL_TIM_Base_MspInit:
 166              	.LFB126:
 106:Src/stm32f3xx_hal_msp.c **** 
 107:Src/stm32f3xx_hal_msp.c **** void HAL_TIM_Base_MspInit(TIM_HandleTypeDef* htim_base)
 108:Src/stm32f3xx_hal_msp.c **** {
 167              		.loc 1 108 0
 168              		.cfi_startproc
 169              		@ args = 0, pretend = 0, frame = 8
 170              		@ frame_needed = 0, uses_anonymous_args = 0
 171              		@ link register save eliminated.
 172              	.LVL9:
 109:Src/stm32f3xx_hal_msp.c **** 
 110:Src/stm32f3xx_hal_msp.c ****   if(htim_base->Instance==TIM16)
 173              		.loc 1 110 0
 174 0000 0268     		ldr	r2, [r0]
 175 0002 084B     		ldr	r3, .L17
 176 0004 9A42     		cmp	r2, r3
 177 0006 0CD1     		bne	.L16
 108:Src/stm32f3xx_hal_msp.c **** 
 178              		.loc 1 108 0
ARM GAS  /tmp/ccaxJLwg.s 			page 6


 179 0008 82B0     		sub	sp, sp, #8
 180              	.LCFI5:
 181              		.cfi_def_cfa_offset 8
 182              	.LBB4:
 111:Src/stm32f3xx_hal_msp.c ****   {
 112:Src/stm32f3xx_hal_msp.c ****   /* USER CODE BEGIN TIM16_MspInit 0 */
 113:Src/stm32f3xx_hal_msp.c **** 
 114:Src/stm32f3xx_hal_msp.c ****   /* USER CODE END TIM16_MspInit 0 */
 115:Src/stm32f3xx_hal_msp.c ****     /* Peripheral clock enable */
 116:Src/stm32f3xx_hal_msp.c ****     __HAL_RCC_TIM16_CLK_ENABLE();
 183              		.loc 1 116 0
 184 000a 03F54C43 		add	r3, r3, #52224
 185 000e 9A69     		ldr	r2, [r3, #24]
 186 0010 42F40032 		orr	r2, r2, #131072
 187 0014 9A61     		str	r2, [r3, #24]
 188 0016 9B69     		ldr	r3, [r3, #24]
 189 0018 03F40033 		and	r3, r3, #131072
 190 001c 0193     		str	r3, [sp, #4]
 191 001e 019B     		ldr	r3, [sp, #4]
 192              	.LBE4:
 117:Src/stm32f3xx_hal_msp.c ****   /* USER CODE BEGIN TIM16_MspInit 1 */
 118:Src/stm32f3xx_hal_msp.c **** 
 119:Src/stm32f3xx_hal_msp.c ****   /* USER CODE END TIM16_MspInit 1 */
 120:Src/stm32f3xx_hal_msp.c ****   }
 121:Src/stm32f3xx_hal_msp.c **** 
 122:Src/stm32f3xx_hal_msp.c **** }
 193              		.loc 1 122 0
 194 0020 02B0     		add	sp, sp, #8
 195              	.LCFI6:
 196              		.cfi_def_cfa_offset 0
 197              		@ sp needed
 198              	.L16:
 199 0022 7047     		bx	lr
 200              	.L18:
 201              		.align	2
 202              	.L17:
 203 0024 00440140 		.word	1073824768
 204              		.cfi_endproc
 205              	.LFE126:
 207              		.section	.text.HAL_TIM_MspPostInit,"ax",%progbits
 208              		.align	2
 209              		.global	HAL_TIM_MspPostInit
 210              		.thumb
 211              		.thumb_func
 213              	HAL_TIM_MspPostInit:
 214              	.LFB127:
 123:Src/stm32f3xx_hal_msp.c **** 
 124:Src/stm32f3xx_hal_msp.c **** void HAL_TIM_MspPostInit(TIM_HandleTypeDef* htim)
 125:Src/stm32f3xx_hal_msp.c **** {
 215              		.loc 1 125 0
 216              		.cfi_startproc
 217              		@ args = 0, pretend = 0, frame = 24
 218              		@ frame_needed = 0, uses_anonymous_args = 0
 219              	.LVL10:
 220 0000 00B5     		push	{lr}
 221              	.LCFI7:
 222              		.cfi_def_cfa_offset 4
ARM GAS  /tmp/ccaxJLwg.s 			page 7


 223              		.cfi_offset 14, -4
 224 0002 87B0     		sub	sp, sp, #28
 225              	.LCFI8:
 226              		.cfi_def_cfa_offset 32
 126:Src/stm32f3xx_hal_msp.c **** 
 127:Src/stm32f3xx_hal_msp.c ****   GPIO_InitTypeDef GPIO_InitStruct;
 128:Src/stm32f3xx_hal_msp.c ****   if(htim->Instance==TIM3)
 227              		.loc 1 128 0
 228 0004 0368     		ldr	r3, [r0]
 229 0006 114A     		ldr	r2, .L23
 230 0008 9342     		cmp	r3, r2
 231 000a 0CD1     		bne	.L20
 129:Src/stm32f3xx_hal_msp.c ****   {
 130:Src/stm32f3xx_hal_msp.c ****   /* USER CODE BEGIN TIM3_MspPostInit 0 */
 131:Src/stm32f3xx_hal_msp.c **** 
 132:Src/stm32f3xx_hal_msp.c ****   /* USER CODE END TIM3_MspPostInit 0 */
 133:Src/stm32f3xx_hal_msp.c ****     /**TIM3 GPIO Configuration    
 134:Src/stm32f3xx_hal_msp.c ****     PB1     ------> TIM3_CH4
 135:Src/stm32f3xx_hal_msp.c ****     PB4     ------> TIM3_CH1 
 136:Src/stm32f3xx_hal_msp.c ****     */
 137:Src/stm32f3xx_hal_msp.c ****     GPIO_InitStruct.Pin = pwm1_Pin|pwm2_Pin;
 232              		.loc 1 137 0
 233 000c 1223     		movs	r3, #18
 234 000e 0193     		str	r3, [sp, #4]
 138:Src/stm32f3xx_hal_msp.c ****     GPIO_InitStruct.Mode = GPIO_MODE_AF_PP;
 235              		.loc 1 138 0
 236 0010 0223     		movs	r3, #2
 237 0012 0293     		str	r3, [sp, #8]
 139:Src/stm32f3xx_hal_msp.c ****     GPIO_InitStruct.Pull = GPIO_NOPULL;
 238              		.loc 1 139 0
 239 0014 0022     		movs	r2, #0
 240 0016 0392     		str	r2, [sp, #12]
 140:Src/stm32f3xx_hal_msp.c ****     GPIO_InitStruct.Speed = GPIO_SPEED_FREQ_LOW;
 241              		.loc 1 140 0
 242 0018 0492     		str	r2, [sp, #16]
 141:Src/stm32f3xx_hal_msp.c ****     GPIO_InitStruct.Alternate = GPIO_AF2_TIM3;
 243              		.loc 1 141 0
 244 001a 0593     		str	r3, [sp, #20]
 142:Src/stm32f3xx_hal_msp.c ****     HAL_GPIO_Init(GPIOB, &GPIO_InitStruct);
 245              		.loc 1 142 0
 246 001c 01A9     		add	r1, sp, #4
 247 001e 0C48     		ldr	r0, .L23+4
 248              	.LVL11:
 249 0020 FFF7FEFF 		bl	HAL_GPIO_Init
 250              	.LVL12:
 251 0024 0FE0     		b	.L19
 252              	.LVL13:
 253              	.L20:
 143:Src/stm32f3xx_hal_msp.c **** 
 144:Src/stm32f3xx_hal_msp.c ****   /* USER CODE BEGIN TIM3_MspPostInit 1 */
 145:Src/stm32f3xx_hal_msp.c **** 
 146:Src/stm32f3xx_hal_msp.c ****   /* USER CODE END TIM3_MspPostInit 1 */
 147:Src/stm32f3xx_hal_msp.c ****   }
 148:Src/stm32f3xx_hal_msp.c ****   else if(htim->Instance==TIM16)
 254              		.loc 1 148 0
 255 0026 0B4A     		ldr	r2, .L23+8
 256 0028 9342     		cmp	r3, r2
ARM GAS  /tmp/ccaxJLwg.s 			page 8


 257 002a 0CD1     		bne	.L19
 149:Src/stm32f3xx_hal_msp.c ****   {
 150:Src/stm32f3xx_hal_msp.c ****   /* USER CODE BEGIN TIM16_MspPostInit 0 */
 151:Src/stm32f3xx_hal_msp.c **** 
 152:Src/stm32f3xx_hal_msp.c ****   /* USER CODE END TIM16_MspPostInit 0 */
 153:Src/stm32f3xx_hal_msp.c ****   
 154:Src/stm32f3xx_hal_msp.c ****     /**TIM16 GPIO Configuration    
 155:Src/stm32f3xx_hal_msp.c ****     PB6     ------> TIM16_CH1N 
 156:Src/stm32f3xx_hal_msp.c ****     */
 157:Src/stm32f3xx_hal_msp.c ****     GPIO_InitStruct.Pin = servCmd_Pin;
 258              		.loc 1 157 0
 259 002c 4023     		movs	r3, #64
 260 002e 0193     		str	r3, [sp, #4]
 158:Src/stm32f3xx_hal_msp.c ****     GPIO_InitStruct.Mode = GPIO_MODE_AF_PP;
 261              		.loc 1 158 0
 262 0030 0223     		movs	r3, #2
 263 0032 0293     		str	r3, [sp, #8]
 159:Src/stm32f3xx_hal_msp.c ****     GPIO_InitStruct.Pull = GPIO_NOPULL;
 264              		.loc 1 159 0
 265 0034 0023     		movs	r3, #0
 266 0036 0393     		str	r3, [sp, #12]
 160:Src/stm32f3xx_hal_msp.c ****     GPIO_InitStruct.Speed = GPIO_SPEED_FREQ_LOW;
 267              		.loc 1 160 0
 268 0038 0493     		str	r3, [sp, #16]
 161:Src/stm32f3xx_hal_msp.c ****     GPIO_InitStruct.Alternate = GPIO_AF1_TIM16;
 269              		.loc 1 161 0
 270 003a 0123     		movs	r3, #1
 271 003c 0593     		str	r3, [sp, #20]
 162:Src/stm32f3xx_hal_msp.c ****     HAL_GPIO_Init(servCmd_GPIO_Port, &GPIO_InitStruct);
 272              		.loc 1 162 0
 273 003e 01A9     		add	r1, sp, #4
 274 0040 0348     		ldr	r0, .L23+4
 275              	.LVL14:
 276 0042 FFF7FEFF 		bl	HAL_GPIO_Init
 277              	.LVL15:
 278              	.L19:
 163:Src/stm32f3xx_hal_msp.c **** 
 164:Src/stm32f3xx_hal_msp.c ****   /* USER CODE BEGIN TIM16_MspPostInit 1 */
 165:Src/stm32f3xx_hal_msp.c **** 
 166:Src/stm32f3xx_hal_msp.c ****   /* USER CODE END TIM16_MspPostInit 1 */
 167:Src/stm32f3xx_hal_msp.c ****   }
 168:Src/stm32f3xx_hal_msp.c **** 
 169:Src/stm32f3xx_hal_msp.c **** }
 279              		.loc 1 169 0
 280 0046 07B0     		add	sp, sp, #28
 281              	.LCFI9:
 282              		.cfi_def_cfa_offset 4
 283              		@ sp needed
 284 0048 5DF804FB 		ldr	pc, [sp], #4
 285              	.L24:
 286              		.align	2
 287              	.L23:
 288 004c 00040040 		.word	1073742848
 289 0050 00040048 		.word	1207960576
 290 0054 00440140 		.word	1073824768
 291              		.cfi_endproc
 292              	.LFE127:
ARM GAS  /tmp/ccaxJLwg.s 			page 9


 294              		.section	.text.HAL_TIM_PWM_MspDeInit,"ax",%progbits
 295              		.align	2
 296              		.global	HAL_TIM_PWM_MspDeInit
 297              		.thumb
 298              		.thumb_func
 300              	HAL_TIM_PWM_MspDeInit:
 301              	.LFB128:
 170:Src/stm32f3xx_hal_msp.c **** 
 171:Src/stm32f3xx_hal_msp.c **** void HAL_TIM_PWM_MspDeInit(TIM_HandleTypeDef* htim_pwm)
 172:Src/stm32f3xx_hal_msp.c **** {
 302              		.loc 1 172 0
 303              		.cfi_startproc
 304              		@ args = 0, pretend = 0, frame = 0
 305              		@ frame_needed = 0, uses_anonymous_args = 0
 306              		@ link register save eliminated.
 307              	.LVL16:
 173:Src/stm32f3xx_hal_msp.c **** 
 174:Src/stm32f3xx_hal_msp.c ****   if(htim_pwm->Instance==TIM3)
 308              		.loc 1 174 0
 309 0000 0268     		ldr	r2, [r0]
 310 0002 044B     		ldr	r3, .L27
 311 0004 9A42     		cmp	r2, r3
 312 0006 04D1     		bne	.L25
 175:Src/stm32f3xx_hal_msp.c ****   {
 176:Src/stm32f3xx_hal_msp.c ****   /* USER CODE BEGIN TIM3_MspDeInit 0 */
 177:Src/stm32f3xx_hal_msp.c **** 
 178:Src/stm32f3xx_hal_msp.c ****   /* USER CODE END TIM3_MspDeInit 0 */
 179:Src/stm32f3xx_hal_msp.c ****     /* Peripheral clock disable */
 180:Src/stm32f3xx_hal_msp.c ****     __HAL_RCC_TIM3_CLK_DISABLE();
 313              		.loc 1 180 0
 314 0008 034A     		ldr	r2, .L27+4
 315 000a D369     		ldr	r3, [r2, #28]
 316 000c 23F00203 		bic	r3, r3, #2
 317 0010 D361     		str	r3, [r2, #28]
 318              	.L25:
 319 0012 7047     		bx	lr
 320              	.L28:
 321              		.align	2
 322              	.L27:
 323 0014 00040040 		.word	1073742848
 324 0018 00100240 		.word	1073876992
 325              		.cfi_endproc
 326              	.LFE128:
 328              		.section	.text.HAL_TIM_Base_MspDeInit,"ax",%progbits
 329              		.align	2
 330              		.global	HAL_TIM_Base_MspDeInit
 331              		.thumb
 332              		.thumb_func
 334              	HAL_TIM_Base_MspDeInit:
 335              	.LFB129:
 181:Src/stm32f3xx_hal_msp.c ****   /* USER CODE BEGIN TIM3_MspDeInit 1 */
 182:Src/stm32f3xx_hal_msp.c **** 
 183:Src/stm32f3xx_hal_msp.c ****   /* USER CODE END TIM3_MspDeInit 1 */
 184:Src/stm32f3xx_hal_msp.c ****   }
 185:Src/stm32f3xx_hal_msp.c **** 
 186:Src/stm32f3xx_hal_msp.c **** }
 187:Src/stm32f3xx_hal_msp.c **** 
ARM GAS  /tmp/ccaxJLwg.s 			page 10


 188:Src/stm32f3xx_hal_msp.c **** void HAL_TIM_Base_MspDeInit(TIM_HandleTypeDef* htim_base)
 189:Src/stm32f3xx_hal_msp.c **** {
 336              		.loc 1 189 0
 337              		.cfi_startproc
 338              		@ args = 0, pretend = 0, frame = 0
 339              		@ frame_needed = 0, uses_anonymous_args = 0
 340              		@ link register save eliminated.
 341              	.LVL17:
 190:Src/stm32f3xx_hal_msp.c **** 
 191:Src/stm32f3xx_hal_msp.c ****   if(htim_base->Instance==TIM16)
 342              		.loc 1 191 0
 343 0000 0268     		ldr	r2, [r0]
 344 0002 044B     		ldr	r3, .L31
 345 0004 9A42     		cmp	r2, r3
 346 0006 04D1     		bne	.L29
 192:Src/stm32f3xx_hal_msp.c ****   {
 193:Src/stm32f3xx_hal_msp.c ****   /* USER CODE BEGIN TIM16_MspDeInit 0 */
 194:Src/stm32f3xx_hal_msp.c **** 
 195:Src/stm32f3xx_hal_msp.c ****   /* USER CODE END TIM16_MspDeInit 0 */
 196:Src/stm32f3xx_hal_msp.c ****     /* Peripheral clock disable */
 197:Src/stm32f3xx_hal_msp.c ****     __HAL_RCC_TIM16_CLK_DISABLE();
 347              		.loc 1 197 0
 348 0008 034A     		ldr	r2, .L31+4
 349 000a 9369     		ldr	r3, [r2, #24]
 350 000c 23F40033 		bic	r3, r3, #131072
 351 0010 9361     		str	r3, [r2, #24]
 352              	.L29:
 353 0012 7047     		bx	lr
 354              	.L32:
 355              		.align	2
 356              	.L31:
 357 0014 00440140 		.word	1073824768
 358 0018 00100240 		.word	1073876992
 359              		.cfi_endproc
 360              	.LFE129:
 362              		.section	.text.HAL_UART_MspInit,"ax",%progbits
 363              		.align	2
 364              		.global	HAL_UART_MspInit
 365              		.thumb
 366              		.thumb_func
 368              	HAL_UART_MspInit:
 369              	.LFB130:
 198:Src/stm32f3xx_hal_msp.c ****   /* USER CODE BEGIN TIM16_MspDeInit 1 */
 199:Src/stm32f3xx_hal_msp.c **** 
 200:Src/stm32f3xx_hal_msp.c ****   /* USER CODE END TIM16_MspDeInit 1 */
 201:Src/stm32f3xx_hal_msp.c ****   }
 202:Src/stm32f3xx_hal_msp.c **** 
 203:Src/stm32f3xx_hal_msp.c **** }
 204:Src/stm32f3xx_hal_msp.c **** 
 205:Src/stm32f3xx_hal_msp.c **** void HAL_UART_MspInit(UART_HandleTypeDef* huart)
 206:Src/stm32f3xx_hal_msp.c **** {
 370              		.loc 1 206 0
 371              		.cfi_startproc
 372              		@ args = 0, pretend = 0, frame = 24
 373              		@ frame_needed = 0, uses_anonymous_args = 0
 374              	.LVL18:
 207:Src/stm32f3xx_hal_msp.c **** 
ARM GAS  /tmp/ccaxJLwg.s 			page 11


 208:Src/stm32f3xx_hal_msp.c ****   GPIO_InitTypeDef GPIO_InitStruct;
 209:Src/stm32f3xx_hal_msp.c ****   if(huart->Instance==USART1)
 375              		.loc 1 209 0
 376 0000 0268     		ldr	r2, [r0]
 377 0002 124B     		ldr	r3, .L37
 378 0004 9A42     		cmp	r2, r3
 379 0006 1FD1     		bne	.L36
 206:Src/stm32f3xx_hal_msp.c **** 
 380              		.loc 1 206 0
 381 0008 00B5     		push	{lr}
 382              	.LCFI10:
 383              		.cfi_def_cfa_offset 4
 384              		.cfi_offset 14, -4
 385 000a 87B0     		sub	sp, sp, #28
 386              	.LCFI11:
 387              		.cfi_def_cfa_offset 32
 388              	.LBB5:
 210:Src/stm32f3xx_hal_msp.c ****   {
 211:Src/stm32f3xx_hal_msp.c ****   /* USER CODE BEGIN USART1_MspInit 0 */
 212:Src/stm32f3xx_hal_msp.c **** 
 213:Src/stm32f3xx_hal_msp.c ****   /* USER CODE END USART1_MspInit 0 */
 214:Src/stm32f3xx_hal_msp.c ****     /* Peripheral clock enable */
 215:Src/stm32f3xx_hal_msp.c ****     __HAL_RCC_USART1_CLK_ENABLE();
 389              		.loc 1 215 0
 390 000c 03F55843 		add	r3, r3, #55296
 391 0010 9A69     		ldr	r2, [r3, #24]
 392 0012 42F48042 		orr	r2, r2, #16384
 393 0016 9A61     		str	r2, [r3, #24]
 394 0018 9B69     		ldr	r3, [r3, #24]
 395 001a 03F48043 		and	r3, r3, #16384
 396 001e 0093     		str	r3, [sp]
 397 0020 009B     		ldr	r3, [sp]
 398              	.LBE5:
 216:Src/stm32f3xx_hal_msp.c ****   
 217:Src/stm32f3xx_hal_msp.c ****     /**USART1 GPIO Configuration    
 218:Src/stm32f3xx_hal_msp.c ****     PA9     ------> USART1_TX
 219:Src/stm32f3xx_hal_msp.c ****     PA10     ------> USART1_RX 
 220:Src/stm32f3xx_hal_msp.c ****     */
 221:Src/stm32f3xx_hal_msp.c ****     GPIO_InitStruct.Pin = GPIO_PIN_9|GPIO_PIN_10;
 399              		.loc 1 221 0
 400 0022 4FF4C063 		mov	r3, #1536
 401 0026 0193     		str	r3, [sp, #4]
 222:Src/stm32f3xx_hal_msp.c ****     GPIO_InitStruct.Mode = GPIO_MODE_AF_PP;
 402              		.loc 1 222 0
 403 0028 0223     		movs	r3, #2
 404 002a 0293     		str	r3, [sp, #8]
 223:Src/stm32f3xx_hal_msp.c ****     GPIO_InitStruct.Pull = GPIO_PULLUP;
 405              		.loc 1 223 0
 406 002c 0123     		movs	r3, #1
 407 002e 0393     		str	r3, [sp, #12]
 224:Src/stm32f3xx_hal_msp.c ****     GPIO_InitStruct.Speed = GPIO_SPEED_FREQ_HIGH;
 408              		.loc 1 224 0
 409 0030 0323     		movs	r3, #3
 410 0032 0493     		str	r3, [sp, #16]
 225:Src/stm32f3xx_hal_msp.c ****     GPIO_InitStruct.Alternate = GPIO_AF7_USART1;
 411              		.loc 1 225 0
 412 0034 0723     		movs	r3, #7
ARM GAS  /tmp/ccaxJLwg.s 			page 12


 413 0036 0593     		str	r3, [sp, #20]
 226:Src/stm32f3xx_hal_msp.c ****     HAL_GPIO_Init(GPIOA, &GPIO_InitStruct);
 414              		.loc 1 226 0
 415 0038 01A9     		add	r1, sp, #4
 416 003a 4FF09040 		mov	r0, #1207959552
 417              	.LVL19:
 418 003e FFF7FEFF 		bl	HAL_GPIO_Init
 419              	.LVL20:
 227:Src/stm32f3xx_hal_msp.c **** 
 228:Src/stm32f3xx_hal_msp.c ****   /* USER CODE BEGIN USART1_MspInit 1 */
 229:Src/stm32f3xx_hal_msp.c **** 
 230:Src/stm32f3xx_hal_msp.c ****   /* USER CODE END USART1_MspInit 1 */
 231:Src/stm32f3xx_hal_msp.c ****   }
 232:Src/stm32f3xx_hal_msp.c **** 
 233:Src/stm32f3xx_hal_msp.c **** }
 420              		.loc 1 233 0
 421 0042 07B0     		add	sp, sp, #28
 422              	.LCFI12:
 423              		.cfi_def_cfa_offset 4
 424              		@ sp needed
 425 0044 5DF804FB 		ldr	pc, [sp], #4
 426              	.LVL21:
 427              	.L36:
 428              	.LCFI13:
 429              		.cfi_def_cfa_offset 0
 430              		.cfi_restore 14
 431 0048 7047     		bx	lr
 432              	.L38:
 433 004a 00BF     		.align	2
 434              	.L37:
 435 004c 00380140 		.word	1073821696
 436              		.cfi_endproc
 437              	.LFE130:
 439              		.section	.text.HAL_UART_MspDeInit,"ax",%progbits
 440              		.align	2
 441              		.global	HAL_UART_MspDeInit
 442              		.thumb
 443              		.thumb_func
 445              	HAL_UART_MspDeInit:
 446              	.LFB131:
 234:Src/stm32f3xx_hal_msp.c **** 
 235:Src/stm32f3xx_hal_msp.c **** void HAL_UART_MspDeInit(UART_HandleTypeDef* huart)
 236:Src/stm32f3xx_hal_msp.c **** {
 447              		.loc 1 236 0
 448              		.cfi_startproc
 449              		@ args = 0, pretend = 0, frame = 0
 450              		@ frame_needed = 0, uses_anonymous_args = 0
 451              	.LVL22:
 452 0000 08B5     		push	{r3, lr}
 453              	.LCFI14:
 454              		.cfi_def_cfa_offset 8
 455              		.cfi_offset 3, -8
 456              		.cfi_offset 14, -4
 237:Src/stm32f3xx_hal_msp.c **** 
 238:Src/stm32f3xx_hal_msp.c ****   if(huart->Instance==USART1)
 457              		.loc 1 238 0
 458 0002 0268     		ldr	r2, [r0]
ARM GAS  /tmp/ccaxJLwg.s 			page 13


 459 0004 074B     		ldr	r3, .L42
 460 0006 9A42     		cmp	r2, r3
 461 0008 0AD1     		bne	.L39
 239:Src/stm32f3xx_hal_msp.c ****   {
 240:Src/stm32f3xx_hal_msp.c ****   /* USER CODE BEGIN USART1_MspDeInit 0 */
 241:Src/stm32f3xx_hal_msp.c **** 
 242:Src/stm32f3xx_hal_msp.c ****   /* USER CODE END USART1_MspDeInit 0 */
 243:Src/stm32f3xx_hal_msp.c ****     /* Peripheral clock disable */
 244:Src/stm32f3xx_hal_msp.c ****     __HAL_RCC_USART1_CLK_DISABLE();
 462              		.loc 1 244 0
 463 000a 074A     		ldr	r2, .L42+4
 464 000c 9369     		ldr	r3, [r2, #24]
 465 000e 23F48043 		bic	r3, r3, #16384
 466 0012 9361     		str	r3, [r2, #24]
 245:Src/stm32f3xx_hal_msp.c ****   
 246:Src/stm32f3xx_hal_msp.c ****     /**USART1 GPIO Configuration    
 247:Src/stm32f3xx_hal_msp.c ****     PA9     ------> USART1_TX
 248:Src/stm32f3xx_hal_msp.c ****     PA10     ------> USART1_RX 
 249:Src/stm32f3xx_hal_msp.c ****     */
 250:Src/stm32f3xx_hal_msp.c ****     HAL_GPIO_DeInit(GPIOA, GPIO_PIN_9|GPIO_PIN_10);
 467              		.loc 1 250 0
 468 0014 4FF4C061 		mov	r1, #1536
 469 0018 4FF09040 		mov	r0, #1207959552
 470              	.LVL23:
 471 001c FFF7FEFF 		bl	HAL_GPIO_DeInit
 472              	.LVL24:
 473              	.L39:
 474 0020 08BD     		pop	{r3, pc}
 475              	.L43:
 476 0022 00BF     		.align	2
 477              	.L42:
 478 0024 00380140 		.word	1073821696
 479 0028 00100240 		.word	1073876992
 480              		.cfi_endproc
 481              	.LFE131:
 483              		.text
 484              	.Letext0:
 485              		.file 2 "/usr/include/newlib/machine/_default_types.h"
 486              		.file 3 "/usr/include/newlib/sys/_stdint.h"
 487              		.file 4 "Drivers/CMSIS/Device/ST/STM32F3xx/Include/stm32f303x8.h"
 488              		.file 5 "Drivers/STM32F3xx_HAL_Driver/Inc/stm32f3xx_hal_def.h"
 489              		.file 6 "Drivers/STM32F3xx_HAL_Driver/Inc/stm32f3xx_hal_gpio.h"
 490              		.file 7 "Drivers/STM32F3xx_HAL_Driver/Inc/stm32f3xx_hal_dma.h"
 491              		.file 8 "Drivers/STM32F3xx_HAL_Driver/Inc/stm32f3xx_hal_tim.h"
 492              		.file 9 "Drivers/STM32F3xx_HAL_Driver/Inc/stm32f3xx_hal_uart.h"
 493              		.file 10 "Drivers/STM32F3xx_HAL_Driver/Inc/stm32f3xx_hal_cortex.h"
 494              		.file 11 "Drivers/CMSIS/Include/core_cm4.h"
ARM GAS  /tmp/ccaxJLwg.s 			page 14

