ARM GAS  C:\Users\Victor\AppData\Local\Temp\ccOdAD8W.s 			page 1


   1              		.cpu cortex-m4
   2              		.eabi_attribute 27, 1
   3              		.eabi_attribute 28, 1
   4              		.eabi_attribute 20, 1
   5              		.eabi_attribute 21, 1
   6              		.eabi_attribute 23, 3
   7              		.eabi_attribute 24, 1
   8              		.eabi_attribute 25, 1
   9              		.eabi_attribute 26, 1
  10              		.eabi_attribute 30, 1
  11              		.eabi_attribute 34, 1
  12              		.eabi_attribute 18, 4
  13              		.file	"freertos.c"
  14              		.text
  15              	.Ltext0:
  16              		.cfi_sections	.debug_frame
  17              		.section	.text.EnvoiMessage,"ax",%progbits
  18              		.align	1
  19              		.global	EnvoiMessage
  20              		.syntax unified
  21              		.thumb
  22              		.thumb_func
  23              		.fpu fpv4-sp-d16
  25              	EnvoiMessage:
  26              	.LFB129:
  27              		.file 1 "Src/freertos.c"
   1:Src/freertos.c **** /**
   2:Src/freertos.c ****   ******************************************************************************
   3:Src/freertos.c ****   * File Name          : freertos.c
   4:Src/freertos.c ****   * Description        : Code for freertos applications
   5:Src/freertos.c ****   ******************************************************************************
   6:Src/freertos.c ****   * This notice applies to any and all portions of this file
   7:Src/freertos.c ****   * that are not between comment pairs USER CODE BEGIN and
   8:Src/freertos.c ****   * USER CODE END. Other portions of this file, whether 
   9:Src/freertos.c ****   * inserted by the user or by software development tools
  10:Src/freertos.c ****   * are owned by their respective copyright owners.
  11:Src/freertos.c ****   *
  12:Src/freertos.c ****   * Copyright (c) 2017 STMicroelectronics International N.V. 
  13:Src/freertos.c ****   * All rights reserved.
  14:Src/freertos.c ****   *
  15:Src/freertos.c ****   * Redistribution and use in source and binary forms, with or without 
  16:Src/freertos.c ****   * modification, are permitted, provided that the following conditions are met:
  17:Src/freertos.c ****   *
  18:Src/freertos.c ****   * 1. Redistribution of source code must retain the above copyright notice, 
  19:Src/freertos.c ****   *    this list of conditions and the following disclaimer.
  20:Src/freertos.c ****   * 2. Redistributions in binary form must reproduce the above copyright notice,
  21:Src/freertos.c ****   *    this list of conditions and the following disclaimer in the documentation
  22:Src/freertos.c ****   *    and/or other materials provided with the distribution.
  23:Src/freertos.c ****   * 3. Neither the name of STMicroelectronics nor the names of other 
  24:Src/freertos.c ****   *    contributors to this software may be used to endorse or promote products 
  25:Src/freertos.c ****   *    derived from this software without specific written permission.
  26:Src/freertos.c ****   * 4. This software, including modifications and/or derivative works of this 
  27:Src/freertos.c ****   *    software, must execute solely and exclusively on microcontroller or
  28:Src/freertos.c ****   *    microprocessor devices manufactured by or for STMicroelectronics.
  29:Src/freertos.c ****   * 5. Redistribution and use of this software other than as permitted under 
  30:Src/freertos.c ****   *    this license is void and will automatically terminate your rights under 
  31:Src/freertos.c ****   *    this license. 
ARM GAS  C:\Users\Victor\AppData\Local\Temp\ccOdAD8W.s 			page 2


  32:Src/freertos.c ****   *
  33:Src/freertos.c ****   * THIS SOFTWARE IS PROVIDED BY STMICROELECTRONICS AND CONTRIBUTORS "AS IS" 
  34:Src/freertos.c ****   * AND ANY EXPRESS, IMPLIED OR STATUTORY WARRANTIES, INCLUDING, BUT NOT 
  35:Src/freertos.c ****   * LIMITED TO, THE IMPLIED WARRANTIES OF MERCHANTABILITY, FITNESS FOR A 
  36:Src/freertos.c ****   * PARTICULAR PURPOSE AND NON-INFRINGEMENT OF THIRD PARTY INTELLECTUAL PROPERTY
  37:Src/freertos.c ****   * RIGHTS ARE DISCLAIMED TO THE FULLEST EXTENT PERMITTED BY LAW. IN NO EVENT 
  38:Src/freertos.c ****   * SHALL STMICROELECTRONICS OR CONTRIBUTORS BE LIABLE FOR ANY DIRECT, INDIRECT,
  39:Src/freertos.c ****   * INCIDENTAL, SPECIAL, EXEMPLARY, OR CONSEQUENTIAL DAMAGES (INCLUDING, BUT NOT
  40:Src/freertos.c ****   * LIMITED TO, PROCUREMENT OF SUBSTITUTE GOODS OR SERVICES; LOSS OF USE, DATA, 
  41:Src/freertos.c ****   * OR PROFITS; OR BUSINESS INTERRUPTION) HOWEVER CAUSED AND ON ANY THEORY OF 
  42:Src/freertos.c ****   * LIABILITY, WHETHER IN CONTRACT, STRICT LIABILITY, OR TORT (INCLUDING 
  43:Src/freertos.c ****   * NEGLIGENCE OR OTHERWISE) ARISING IN ANY WAY OUT OF THE USE OF THIS SOFTWARE,
  44:Src/freertos.c ****   * EVEN IF ADVISED OF THE POSSIBILITY OF SUCH DAMAGE.
  45:Src/freertos.c ****   *
  46:Src/freertos.c ****   ******************************************************************************
  47:Src/freertos.c ****   */
  48:Src/freertos.c **** 
  49:Src/freertos.c **** /* Includes ------------------------------------------------------------------*/
  50:Src/freertos.c **** #include "FreeRTOS.h"
  51:Src/freertos.c **** #include "task.h"
  52:Src/freertos.c **** 
  53:Src/freertos.c **** 
  54:Src/freertos.c **** 
  55:Src/freertos.c **** /* USER CODE BEGIN Includes */     
  56:Src/freertos.c **** #include "main.h"
  57:Src/freertos.c **** #include "stm32f3xx_hal.h"
  58:Src/freertos.c **** #include "cmsis_os.h"
  59:Src/freertos.c **** 
  60:Src/freertos.c **** UART_HandleTypeDef huart1;
  61:Src/freertos.c **** 
  62:Src/freertos.c **** osThreadId defaultTaskHandle;
  63:Src/freertos.c **** /* USER CODE END Includes */
  64:Src/freertos.c **** 
  65:Src/freertos.c **** /* Variables -----------------------------------------------------------------*/
  66:Src/freertos.c **** 
  67:Src/freertos.c **** /* USER CODE BEGIN Variables */
  68:Src/freertos.c **** 
  69:Src/freertos.c **** /* USER CODE END Variables */
  70:Src/freertos.c **** 
  71:Src/freertos.c **** /* Function prototypes -------------------------------------------------------*/
  72:Src/freertos.c **** void EnvoiMessage(uint8_t data){
  28              		.loc 1 72 0
  29              		.cfi_startproc
  30              		@ args = 0, pretend = 0, frame = 8
  31              		@ frame_needed = 0, uses_anonymous_args = 0
  32              	.LVL0:
  33 0000 2DE9F047 		push	{r4, r5, r6, r7, r8, r9, r10, lr}
  34              	.LCFI0:
  35              		.cfi_def_cfa_offset 32
  36              		.cfi_offset 4, -32
  37              		.cfi_offset 5, -28
  38              		.cfi_offset 6, -24
  39              		.cfi_offset 7, -20
  40              		.cfi_offset 8, -16
  41              		.cfi_offset 9, -12
  42              		.cfi_offset 10, -8
  43              		.cfi_offset 14, -4
ARM GAS  C:\Users\Victor\AppData\Local\Temp\ccOdAD8W.s 			page 3


  44 0004 82B0     		sub	sp, sp, #8
  45              	.LCFI1:
  46              		.cfi_def_cfa_offset 40
  73:Src/freertos.c ****       uint8_t eun, b, edeux, equatre, ehuit,eseize, etrentedeux, esoixantequatre, ecentvingthuit, k
  74:Src/freertos.c **** 
  75:Src/freertos.c ****       eun = (data & 0x01);
  47              		.loc 1 75 0
  48 0006 00F00107 		and	r7, r0, #1
  49              	.LVL1:
  76:Src/freertos.c ****       edeux = (data & 0x02)/2;
  50              		.loc 1 76 0
  51 000a C0F34005 		ubfx	r5, r0, #1, #1
  52              	.LVL2:
  77:Src/freertos.c ****       equatre =(data & 0x04)/4;
  53              		.loc 1 77 0
  54 000e 00F00403 		and	r3, r0, #4
  55 0012 9B08     		lsrs	r3, r3, #2
  56              	.LVL3:
  78:Src/freertos.c ****       ehuit = (data & 0x08)/8;
  57              		.loc 1 78 0
  58 0014 00F00801 		and	r1, r0, #8
  59 0018 C910     		asrs	r1, r1, #3
  60 001a CEB2     		uxtb	r6, r1
  61              	.LVL4:
  79:Src/freertos.c ****      eseize = (data & 0x10)/16;
  62              		.loc 1 79 0
  63 001c 00F01004 		and	r4, r0, #16
  64 0020 2411     		asrs	r4, r4, #4
  65 0022 5FFA84FC 		uxtb	ip, r4
  66              	.LVL5:
  80:Src/freertos.c ****       etrentedeux = (data & 0x20)/32;
  67              		.loc 1 80 0
  68 0026 00F02002 		and	r2, r0, #32
  69 002a 5209     		lsrs	r2, r2, #5
  70              	.LVL6:
  81:Src/freertos.c ****       esoixantequatre = (data & 0x40)/64;
  71              		.loc 1 81 0
  72 002c 00F04008 		and	r8, r0, #64
  73 0030 4FEAA818 		asr	r8, r8, #6
  74 0034 5FFA88FE 		uxtb	lr, r8
  75              	.LVL7:
  82:Src/freertos.c ****       ecentvingthuit = (data & 0x80)/128;
  76              		.loc 1 82 0
  77 0038 00F08000 		and	r0, r0, #128
  78              	.LVL8:
  79 003c C009     		lsrs	r0, r0, #7
  80              	.LVL9:
  83:Src/freertos.c **** 
  84:Src/freertos.c ****      b =  (ecentvingthuit^etrentedeux)*32 + (ecentvingthuit^esoixantequatre)*16 + (esoixantequatre^
  81              		.loc 1 84 0
  82 003e 82EA000A 		eor	r10, r2, r0
  83 0042 8EEA0009 		eor	r9, lr, r0
  84 0046 09EB4A09 		add	r9, r9, r10, lsl #1
  85 004a 82EA0E0E 		eor	lr, r2, lr
  86              	.LVL10:
  87 004e 0EEB490E 		add	lr, lr, r9, lsl #1
  88 0052 00EB4E00 		add	r0, r0, lr, lsl #1
ARM GAS  C:\Users\Victor\AppData\Local\Temp\ccOdAD8W.s 			page 4


  89              	.LVL11:
  90 0056 08EB4000 		add	r0, r8, r0, lsl #1
  91 005a 02EB4000 		add	r0, r2, r0, lsl #1
  92 005e 8DF80700 		strb	r0, [sp, #7]
  85:Src/freertos.c ****      k = (eseize^equatre)*32 +  (eseize^ehuit)*16 + (ehuit^equatre)*8 + eseize*4  + ehuit*2 + equat
  93              		.loc 1 85 0
  94 0062 83EA0C00 		eor	r0, r3, ip
  95 0066 86EA0C02 		eor	r2, r6, ip
  96              	.LVL12:
  97 006a 02EB4002 		add	r2, r2, r0, lsl #1
  98 006e 5E40     		eors	r6, r6, r3
  99              	.LVL13:
 100 0070 06EB4206 		add	r6, r6, r2, lsl #1
 101 0074 04EB4606 		add	r6, r4, r6, lsl #1
 102 0078 01EB4601 		add	r1, r1, r6, lsl #1
 103              	.LVL14:
 104 007c 03EB4103 		add	r3, r3, r1, lsl #1
 105              	.LVL15:
 106 0080 8DF80630 		strb	r3, [sp, #6]
 107 0084 EBB2     		uxtb	r3, r5
  86:Src/freertos.c ****      z = (0^eun)*32 + (0^edeux)*16 + (eun^edeux)*8 +edeux*2  + eun;
 108              		.loc 1 86 0
 109 0086 03EB4702 		add	r2, r3, r7, lsl #1
 110 008a 7D40     		eors	r5, r5, r7
 111              	.LVL16:
 112 008c 05EB4205 		add	r5, r5, r2, lsl #1
 113 0090 03EB8505 		add	r5, r3, r5, lsl #2
 114 0094 07EB4507 		add	r7, r7, r5, lsl #1
 115              	.LVL17:
 116 0098 8DF80570 		strb	r7, [sp, #5]
  87:Src/freertos.c **** 
  88:Src/freertos.c ****      HAL_UART_Transmit(&huart1, &b, sizeof(data), 0xEEEE);
 117              		.loc 1 88 0
 118 009c 124C     		ldr	r4, .L9
 119 009e 4EF6EE63 		movw	r3, #61166
 120              	.LVL18:
 121 00a2 0122     		movs	r2, #1
 122 00a4 0DF10701 		add	r1, sp, #7
 123 00a8 2046     		mov	r0, r4
 124 00aa FFF7FEFF 		bl	HAL_UART_Transmit
 125              	.LVL19:
  89:Src/freertos.c ****      osDelay(2);
 126              		.loc 1 89 0
 127 00ae 0220     		movs	r0, #2
 128 00b0 FFF7FEFF 		bl	osDelay
 129              	.LVL20:
  90:Src/freertos.c ****      HAL_UART_Transmit(&huart1, &k, sizeof(data), 0xEEEE);
 130              		.loc 1 90 0
 131 00b4 4EF6EE63 		movw	r3, #61166
 132 00b8 0122     		movs	r2, #1
 133 00ba 0DF10601 		add	r1, sp, #6
 134 00be 2046     		mov	r0, r4
 135 00c0 FFF7FEFF 		bl	HAL_UART_Transmit
 136              	.LVL21:
  91:Src/freertos.c ****      osDelay(2);
 137              		.loc 1 91 0
 138 00c4 0220     		movs	r0, #2
ARM GAS  C:\Users\Victor\AppData\Local\Temp\ccOdAD8W.s 			page 5


 139 00c6 FFF7FEFF 		bl	osDelay
 140              	.LVL22:
  92:Src/freertos.c ****      HAL_UART_Transmit(&huart1, &z, sizeof(data), 0xEEEE);
 141              		.loc 1 92 0
 142 00ca 4EF6EE63 		movw	r3, #61166
 143 00ce 0122     		movs	r2, #1
 144 00d0 0DF10501 		add	r1, sp, #5
 145 00d4 2046     		mov	r0, r4
 146 00d6 FFF7FEFF 		bl	HAL_UART_Transmit
 147              	.LVL23:
  93:Src/freertos.c ****      osDelay(2);
 148              		.loc 1 93 0
 149 00da 0220     		movs	r0, #2
 150 00dc FFF7FEFF 		bl	osDelay
 151              	.LVL24:
  94:Src/freertos.c **** 
  95:Src/freertos.c **** }
 152              		.loc 1 95 0
 153 00e0 02B0     		add	sp, sp, #8
 154              	.LCFI2:
 155              		.cfi_def_cfa_offset 32
 156              		@ sp needed
 157 00e2 BDE8F087 		pop	{r4, r5, r6, r7, r8, r9, r10, pc}
 158              	.LVL25:
 159              	.L10:
 160 00e6 00BF     		.align	2
 161              	.L9:
 162 00e8 00000000 		.word	huart1
 163              		.cfi_endproc
 164              	.LFE129:
 166              		.section	.text.ReceptionMessage,"ax",%progbits
 167              		.align	1
 168              		.global	ReceptionMessage
 169              		.syntax unified
 170              		.thumb
 171              		.thumb_func
 172              		.fpu fpv4-sp-d16
 174              	ReceptionMessage:
 175              	.LFB130:
  96:Src/freertos.c **** 
  97:Src/freertos.c **** int ReceptionMessage(){
 176              		.loc 1 97 0
 177              		.cfi_startproc
 178              		@ args = 0, pretend = 0, frame = 8
 179              		@ frame_needed = 0, uses_anonymous_args = 0
 180 0000 2DE9F043 		push	{r4, r5, r6, r7, r8, r9, lr}
 181              	.LCFI3:
 182              		.cfi_def_cfa_offset 28
 183              		.cfi_offset 4, -28
 184              		.cfi_offset 5, -24
 185              		.cfi_offset 6, -20
 186              		.cfi_offset 7, -16
 187              		.cfi_offset 8, -12
 188              		.cfi_offset 9, -8
 189              		.cfi_offset 14, -4
 190 0004 83B0     		sub	sp, sp, #12
 191              	.LCFI4:
ARM GAS  C:\Users\Victor\AppData\Local\Temp\ccOdAD8W.s 			page 6


 192              		.cfi_def_cfa_offset 40
  98:Src/freertos.c ****    uint8_t r, m, n, v, run, rdeux, rquatre, rhuit, rseize, rtrentedeux, ok, i;
  99:Src/freertos.c ****    uint8_t rec[3];
 100:Src/freertos.c ****    HAL_UART_Receive(&huart1, &r, sizeof(uint8_t), 0xEEEE);
 193              		.loc 1 100 0
 194 0006 304C     		ldr	r4, .L28
 195 0008 4EF6EE63 		movw	r3, #61166
 196 000c 0122     		movs	r2, #1
 197 000e 0DF10701 		add	r1, sp, #7
 198 0012 2046     		mov	r0, r4
 199 0014 FFF7FEFF 		bl	HAL_UART_Receive
 200              	.LVL26:
 101:Src/freertos.c ****    HAL_UART_Receive(&huart1, &m, sizeof(uint8_t), 0xEEEE);
 201              		.loc 1 101 0
 202 0018 4EF6EE63 		movw	r3, #61166
 203 001c 0122     		movs	r2, #1
 204 001e 0DF10601 		add	r1, sp, #6
 205 0022 2046     		mov	r0, r4
 206 0024 FFF7FEFF 		bl	HAL_UART_Receive
 207              	.LVL27:
 102:Src/freertos.c ****    HAL_UART_Receive(&huart1, &n, sizeof(uint8_t), 0xEEEE);
 208              		.loc 1 102 0
 209 0028 4EF6EE63 		movw	r3, #61166
 210 002c 0122     		movs	r2, #1
 211 002e 0DF10501 		add	r1, sp, #5
 212 0032 2046     		mov	r0, r4
 213 0034 FFF7FEFF 		bl	HAL_UART_Receive
 214              	.LVL28:
 103:Src/freertos.c **** 
 104:Src/freertos.c ****    rec[0] = r;
 215              		.loc 1 104 0
 216 0038 9DF807C0 		ldrb	ip, [sp, #7]	@ zero_extendqisi2
 217 003c 8DF800C0 		strb	ip, [sp]
 105:Src/freertos.c ****    rec[1] = m;
 218              		.loc 1 105 0
 219 0040 9DF80650 		ldrb	r5, [sp, #6]	@ zero_extendqisi2
 220 0044 8DF80150 		strb	r5, [sp, #1]
 106:Src/freertos.c ****    rec[2] = n;
 221              		.loc 1 106 0
 222 0048 9DF80570 		ldrb	r7, [sp, #5]	@ zero_extendqisi2
 223 004c 8DF80270 		strb	r7, [sp, #2]
 224              	.LVL29:
 107:Src/freertos.c ****    ok = 1;
 108:Src/freertos.c ****     for (i =0; i<3; i++){
 225              		.loc 1 108 0
 226 0050 0022     		movs	r2, #0
 107:Src/freertos.c ****    ok = 1;
 227              		.loc 1 107 0
 228 0052 0126     		movs	r6, #1
 229              		.loc 1 108 0
 230 0054 01E0     		b	.L12
 231              	.LVL30:
 232              	.L19:
 233              		.loc 1 108 0 is_stmt 0 discriminator 2
 234 0056 0132     		adds	r2, r2, #1
 235              	.LVL31:
 236 0058 D2B2     		uxtb	r2, r2
ARM GAS  C:\Users\Victor\AppData\Local\Temp\ccOdAD8W.s 			page 7


 237              	.LVL32:
 238              	.L12:
 239              		.loc 1 108 0 discriminator 1
 240 005a 022A     		cmp	r2, #2
 241 005c 22D8     		bhi	.L27
 109:Src/freertos.c ****     run = (rec[i] & 0x01);
 242              		.loc 1 109 0 is_stmt 1
 243 005e 02AB     		add	r3, sp, #8
 244 0060 1344     		add	r3, r3, r2
 245 0062 13F8083C 		ldrb	r3, [r3, #-8]	@ zero_extendqisi2
 246 0066 03F00100 		and	r0, r3, #1
 247              	.LVL33:
 110:Src/freertos.c ****     rdeux = (rec[i] & 0x02)/2;
 248              		.loc 1 110 0
 249 006a C3F34004 		ubfx	r4, r3, #1, #1
 250              	.LVL34:
 111:Src/freertos.c ****     rquatre =(rec[i] & 0x04)/4;
 251              		.loc 1 111 0
 252 006e 03F00401 		and	r1, r3, #4
 253 0072 8908     		lsrs	r1, r1, #2
 254              	.LVL35:
 112:Src/freertos.c ****     rhuit = (rec[i] & 0x08)/8;
 255              		.loc 1 112 0
 256 0074 03F0080E 		and	lr, r3, #8
 257              	.LVL36:
 113:Src/freertos.c ****     rseize = (rec[i] & 0x10)/16;
 258              		.loc 1 113 0
 259 0078 03F01008 		and	r8, r3, #16
 260 007c 4FEA1818 		lsr	r8, r8, #4
 261              	.LVL37:
 114:Src/freertos.c ****     rtrentedeux = (rec[i] & 0x20)/32;
 262              		.loc 1 114 0
 263 0080 03F02003 		and	r3, r3, #32
 264 0084 5B09     		lsrs	r3, r3, #5
 265              	.LVL38:
 115:Src/freertos.c ****    if ((run^rdeux) != rhuit) ok =0;
 266              		.loc 1 115 0
 267 0086 80EA0409 		eor	r9, r0, r4
 268 008a B9EBDE0F 		cmp	r9, lr, lsr #3
 269 008e 00D0     		beq	.L17
 270 0090 0026     		movs	r6, #0
 271              	.LVL39:
 272              	.L17:
 116:Src/freertos.c ****    if ((rdeux^rquatre) != rseize) ok =0;
 273              		.loc 1 116 0
 274 0092 4C40     		eors	r4, r4, r1
 275              	.LVL40:
 276 0094 A045     		cmp	r8, r4
 277 0096 00D0     		beq	.L18
 278 0098 0026     		movs	r6, #0
 279              	.LVL41:
 280              	.L18:
 117:Src/freertos.c ****    if ((rquatre^run) != rtrentedeux) ok = 0;
 281              		.loc 1 117 0
 282 009a 4140     		eors	r1, r1, r0
 283              	.LVL42:
 284 009c 8B42     		cmp	r3, r1
ARM GAS  C:\Users\Victor\AppData\Local\Temp\ccOdAD8W.s 			page 8


 285 009e DAD0     		beq	.L19
 286 00a0 0026     		movs	r6, #0
 287              	.LVL43:
 288 00a2 D8E7     		b	.L19
 289              	.LVL44:
 290              	.L27:
 118:Src/freertos.c **** 
 119:Src/freertos.c **** }
 120:Src/freertos.c **** r =  (r & 0x07)*32;
 291              		.loc 1 120 0
 292 00a4 0CF0070C 		and	ip, ip, #7
 121:Src/freertos.c ****  m =  (m & 0x07)*4;
 293              		.loc 1 121 0
 294 00a8 05F00703 		and	r3, r5, #7
 295 00ac 9B00     		lsls	r3, r3, #2
 122:Src/freertos.c ****   n =  (n & 0x07);
 296              		.loc 1 122 0
 297 00ae 07F00707 		and	r7, r7, #7
 123:Src/freertos.c **** v =  r + m + n;
 298              		.loc 1 123 0
 299 00b2 03EB4C13 		add	r3, r3, ip, lsl #5
 300 00b6 DBB2     		uxtb	r3, r3
 301 00b8 3B44     		add	r3, r3, r7
 302 00ba D8B2     		uxtb	r0, r3
 303              	.LVL45:
 124:Src/freertos.c **** if (ok == 1)
 304              		.loc 1 124 0
 305 00bc 06B9     		cbnz	r6, .L11
 125:Src/freertos.c **** return(v);
 126:Src/freertos.c **** else
 127:Src/freertos.c ****     return(0);
 306              		.loc 1 127 0
 307 00be 0020     		movs	r0, #0
 308              	.LVL46:
 309              	.L11:
 128:Src/freertos.c **** 
 129:Src/freertos.c **** }
 310              		.loc 1 129 0
 311 00c0 03B0     		add	sp, sp, #12
 312              	.LCFI5:
 313              		.cfi_def_cfa_offset 28
 314              		@ sp needed
 315 00c2 BDE8F083 		pop	{r4, r5, r6, r7, r8, r9, pc}
 316              	.LVL47:
 317              	.L29:
 318 00c6 00BF     		.align	2
 319              	.L28:
 320 00c8 00000000 		.word	huart1
 321              		.cfi_endproc
 322              	.LFE130:
 324              		.section	.text.Traduction,"ax",%progbits
 325              		.align	1
 326              		.global	Traduction
 327              		.syntax unified
 328              		.thumb
 329              		.thumb_func
 330              		.fpu fpv4-sp-d16
ARM GAS  C:\Users\Victor\AppData\Local\Temp\ccOdAD8W.s 			page 9


 332              	Traduction:
 333              	.LFB131:
 130:Src/freertos.c **** 
 131:Src/freertos.c ****    void Traduction(uint8_t z){
 334              		.loc 1 131 0
 335              		.cfi_startproc
 336              		@ args = 0, pretend = 0, frame = 0
 337              		@ frame_needed = 0, uses_anonymous_args = 0
 338              	.LVL48:
 339 0000 10B5     		push	{r4, lr}
 340              	.LCFI6:
 341              		.cfi_def_cfa_offset 8
 342              		.cfi_offset 4, -8
 343              		.cfi_offset 14, -4
 344 0002 0446     		mov	r4, r0
 132:Src/freertos.c ****        if (z == 0x74){
 345              		.loc 1 132 0
 346 0004 7428     		cmp	r0, #116
 347 0006 04D0     		beq	.L35
 348              	.LVL49:
 349              	.L31:
 133:Src/freertos.c ****            HAL_GPIO_TogglePin(GPIOA, Led_Pin);
 134:Src/freertos.c ****            osDelay(400);
 135:Src/freertos.c ****            HAL_GPIO_TogglePin(GPIOA, Led_Pin);
 136:Src/freertos.c ****            osDelay(400);
 137:Src/freertos.c ****            HAL_GPIO_TogglePin(GPIOA, del_Pin);
 138:Src/freertos.c ****        }
 139:Src/freertos.c ****        if (z == 0x95){
 350              		.loc 1 139 0
 351 0008 952C     		cmp	r4, #149
 352 000a 1AD0     		beq	.L36
 353              	.L32:
 140:Src/freertos.c ****            HAL_GPIO_TogglePin(GPIOA, del_Pin);
 141:Src/freertos.c ****            osDelay(200);
 142:Src/freertos.c ****            HAL_GPIO_TogglePin(GPIOA, del_Pin);
 143:Src/freertos.c ****            osDelay(200);
 144:Src/freertos.c ****            HAL_GPIO_TogglePin(GPIOA, del_Pin);
 145:Src/freertos.c ****            osDelay(200);
 146:Src/freertos.c ****            HAL_GPIO_TogglePin(GPIOA, del_Pin);
 147:Src/freertos.c ****            osDelay(200);
 148:Src/freertos.c ****            HAL_GPIO_TogglePin(GPIOA, del_Pin);
 149:Src/freertos.c ****            osDelay(200);
 150:Src/freertos.c ****        }
 151:Src/freertos.c ****        if (z==0x65){
 354              		.loc 1 151 0
 355 000c 652C     		cmp	r4, #101
 356 000e 41D0     		beq	.L37
 357              	.L30:
 358 0010 10BD     		pop	{r4, pc}
 359              	.LVL50:
 360              	.L35:
 133:Src/freertos.c ****            HAL_GPIO_TogglePin(GPIOA, Led_Pin);
 361              		.loc 1 133 0
 362 0012 8021     		movs	r1, #128
 363 0014 4FF09040 		mov	r0, #1207959552
 364              	.LVL51:
 365 0018 FFF7FEFF 		bl	HAL_GPIO_TogglePin
ARM GAS  C:\Users\Victor\AppData\Local\Temp\ccOdAD8W.s 			page 10


 366              	.LVL52:
 134:Src/freertos.c ****            HAL_GPIO_TogglePin(GPIOA, Led_Pin);
 367              		.loc 1 134 0
 368 001c 4FF4C870 		mov	r0, #400
 369 0020 FFF7FEFF 		bl	osDelay
 370              	.LVL53:
 135:Src/freertos.c ****            osDelay(400);
 371              		.loc 1 135 0
 372 0024 8021     		movs	r1, #128
 373 0026 4FF09040 		mov	r0, #1207959552
 374 002a FFF7FEFF 		bl	HAL_GPIO_TogglePin
 375              	.LVL54:
 136:Src/freertos.c ****            HAL_GPIO_TogglePin(GPIOA, del_Pin);
 376              		.loc 1 136 0
 377 002e 4FF4C870 		mov	r0, #400
 378 0032 FFF7FEFF 		bl	osDelay
 379              	.LVL55:
 137:Src/freertos.c ****        }
 380              		.loc 1 137 0
 381 0036 2021     		movs	r1, #32
 382 0038 4FF09040 		mov	r0, #1207959552
 383 003c FFF7FEFF 		bl	HAL_GPIO_TogglePin
 384              	.LVL56:
 385 0040 E2E7     		b	.L31
 386              	.L36:
 140:Src/freertos.c ****            osDelay(200);
 387              		.loc 1 140 0
 388 0042 2021     		movs	r1, #32
 389 0044 4FF09040 		mov	r0, #1207959552
 390 0048 FFF7FEFF 		bl	HAL_GPIO_TogglePin
 391              	.LVL57:
 141:Src/freertos.c ****            HAL_GPIO_TogglePin(GPIOA, del_Pin);
 392              		.loc 1 141 0
 393 004c C820     		movs	r0, #200
 394 004e FFF7FEFF 		bl	osDelay
 395              	.LVL58:
 142:Src/freertos.c ****            osDelay(200);
 396              		.loc 1 142 0
 397 0052 2021     		movs	r1, #32
 398 0054 4FF09040 		mov	r0, #1207959552
 399 0058 FFF7FEFF 		bl	HAL_GPIO_TogglePin
 400              	.LVL59:
 143:Src/freertos.c ****            HAL_GPIO_TogglePin(GPIOA, del_Pin);
 401              		.loc 1 143 0
 402 005c C820     		movs	r0, #200
 403 005e FFF7FEFF 		bl	osDelay
 404              	.LVL60:
 144:Src/freertos.c ****            osDelay(200);
 405              		.loc 1 144 0
 406 0062 2021     		movs	r1, #32
 407 0064 4FF09040 		mov	r0, #1207959552
 408 0068 FFF7FEFF 		bl	HAL_GPIO_TogglePin
 409              	.LVL61:
 145:Src/freertos.c ****            HAL_GPIO_TogglePin(GPIOA, del_Pin);
 410              		.loc 1 145 0
 411 006c C820     		movs	r0, #200
 412 006e FFF7FEFF 		bl	osDelay
ARM GAS  C:\Users\Victor\AppData\Local\Temp\ccOdAD8W.s 			page 11


 413              	.LVL62:
 146:Src/freertos.c ****            osDelay(200);
 414              		.loc 1 146 0
 415 0072 2021     		movs	r1, #32
 416 0074 4FF09040 		mov	r0, #1207959552
 417 0078 FFF7FEFF 		bl	HAL_GPIO_TogglePin
 418              	.LVL63:
 147:Src/freertos.c ****            HAL_GPIO_TogglePin(GPIOA, del_Pin);
 419              		.loc 1 147 0
 420 007c C820     		movs	r0, #200
 421 007e FFF7FEFF 		bl	osDelay
 422              	.LVL64:
 148:Src/freertos.c ****            osDelay(200);
 423              		.loc 1 148 0
 424 0082 2021     		movs	r1, #32
 425 0084 4FF09040 		mov	r0, #1207959552
 426 0088 FFF7FEFF 		bl	HAL_GPIO_TogglePin
 427              	.LVL65:
 149:Src/freertos.c ****        }
 428              		.loc 1 149 0
 429 008c C820     		movs	r0, #200
 430 008e FFF7FEFF 		bl	osDelay
 431              	.LVL66:
 432 0092 BBE7     		b	.L32
 433              	.L37:
 152:Src/freertos.c ****            HAL_GPIO_TogglePin(GPIOA, Led_Pin);
 434              		.loc 1 152 0
 435 0094 8021     		movs	r1, #128
 436 0096 4FF09040 		mov	r0, #1207959552
 437 009a FFF7FEFF 		bl	HAL_GPIO_TogglePin
 438              	.LVL67:
 153:Src/freertos.c ****            osDelay(150);
 439              		.loc 1 153 0
 440 009e 9620     		movs	r0, #150
 441 00a0 FFF7FEFF 		bl	osDelay
 442              	.LVL68:
 154:Src/freertos.c ****            HAL_GPIO_TogglePin(GPIOA, del_Pin);
 443              		.loc 1 154 0
 444 00a4 2021     		movs	r1, #32
 445 00a6 4FF09040 		mov	r0, #1207959552
 446 00aa FFF7FEFF 		bl	HAL_GPIO_TogglePin
 447              	.LVL69:
 155:Src/freertos.c ****            osDelay(150);
 448              		.loc 1 155 0
 449 00ae 9620     		movs	r0, #150
 450 00b0 FFF7FEFF 		bl	osDelay
 451              	.LVL70:
 156:Src/freertos.c ****            HAL_GPIO_TogglePin(GPIOA, Led_Pin);
 452              		.loc 1 156 0
 453 00b4 8021     		movs	r1, #128
 454 00b6 4FF09040 		mov	r0, #1207959552
 455 00ba FFF7FEFF 		bl	HAL_GPIO_TogglePin
 456              	.LVL71:
 157:Src/freertos.c ****            osDelay(150);
 457              		.loc 1 157 0
 458 00be 9620     		movs	r0, #150
 459 00c0 FFF7FEFF 		bl	osDelay
ARM GAS  C:\Users\Victor\AppData\Local\Temp\ccOdAD8W.s 			page 12


 460              	.LVL72:
 158:Src/freertos.c ****            HAL_GPIO_TogglePin(GPIOA, del_Pin);
 461              		.loc 1 158 0
 462 00c4 2021     		movs	r1, #32
 463 00c6 4FF09040 		mov	r0, #1207959552
 464 00ca FFF7FEFF 		bl	HAL_GPIO_TogglePin
 465              	.LVL73:
 159:Src/freertos.c ****            osDelay(150);
 466              		.loc 1 159 0
 467 00ce 9620     		movs	r0, #150
 468 00d0 FFF7FEFF 		bl	osDelay
 469              	.LVL74:
 160:Src/freertos.c ****            HAL_GPIO_TogglePin(GPIOA, Led_Pin);
 470              		.loc 1 160 0
 471 00d4 8021     		movs	r1, #128
 472 00d6 4FF09040 		mov	r0, #1207959552
 473 00da FFF7FEFF 		bl	HAL_GPIO_TogglePin
 474              	.LVL75:
 161:Src/freertos.c ****            osDelay(150);
 475              		.loc 1 161 0
 476 00de 9620     		movs	r0, #150
 477 00e0 FFF7FEFF 		bl	osDelay
 478              	.LVL76:
 162:Src/freertos.c ****            HAL_GPIO_TogglePin(GPIOA, del_Pin);
 479              		.loc 1 162 0
 480 00e4 2021     		movs	r1, #32
 481 00e6 4FF09040 		mov	r0, #1207959552
 482 00ea FFF7FEFF 		bl	HAL_GPIO_TogglePin
 483              	.LVL77:
 163:Src/freertos.c ****            osDelay(150);
 484              		.loc 1 163 0
 485 00ee 9620     		movs	r0, #150
 486 00f0 FFF7FEFF 		bl	osDelay
 487              	.LVL78:
 164:Src/freertos.c ****            HAL_GPIO_TogglePin(GPIOA, Led_Pin);
 488              		.loc 1 164 0
 489 00f4 8021     		movs	r1, #128
 490 00f6 4FF09040 		mov	r0, #1207959552
 491 00fa FFF7FEFF 		bl	HAL_GPIO_TogglePin
 492              	.LVL79:
 165:Src/freertos.c ****            osDelay(150);
 493              		.loc 1 165 0
 494 00fe 9620     		movs	r0, #150
 495 0100 FFF7FEFF 		bl	osDelay
 496              	.LVL80:
 166:Src/freertos.c ****            HAL_GPIO_TogglePin(GPIOA, del_Pin);
 497              		.loc 1 166 0
 498 0104 2021     		movs	r1, #32
 499 0106 4FF09040 		mov	r0, #1207959552
 500 010a FFF7FEFF 		bl	HAL_GPIO_TogglePin
 501              	.LVL81:
 167:Src/freertos.c ****            osDelay(150);
 502              		.loc 1 167 0
 503 010e 9620     		movs	r0, #150
 504 0110 FFF7FEFF 		bl	osDelay
 505              	.LVL82:
 168:Src/freertos.c ****            HAL_GPIO_TogglePin(GPIOA, Led_Pin);
ARM GAS  C:\Users\Victor\AppData\Local\Temp\ccOdAD8W.s 			page 13


 506              		.loc 1 168 0
 507 0114 8021     		movs	r1, #128
 508 0116 4FF09040 		mov	r0, #1207959552
 509 011a FFF7FEFF 		bl	HAL_GPIO_TogglePin
 510              	.LVL83:
 169:Src/freertos.c ****            osDelay(150);
 511              		.loc 1 169 0
 512 011e 9620     		movs	r0, #150
 513 0120 FFF7FEFF 		bl	osDelay
 514              	.LVL84:
 170:Src/freertos.c ****        }
 171:Src/freertos.c ****    }
 515              		.loc 1 171 0
 516 0124 74E7     		b	.L30
 517              		.cfi_endproc
 518              	.LFE131:
 520              		.comm	defaultTaskHandle,4,4
 521              		.comm	huart1,112,4
 522              		.text
 523              	.Letext0:
 524              		.file 2 "c:\\users\\victor\\desktop\\projet_robot\\arm-none-eabi\\include\\machine\\_default_types
 525              		.file 3 "c:\\users\\victor\\desktop\\projet_robot\\arm-none-eabi\\include\\sys\\_stdint.h"
 526              		.file 4 "Middlewares/Third_Party/FreeRTOS/Source/include/task.h"
 527              		.file 5 "Inc/FreeRTOSConfig.h"
 528              		.file 6 "Drivers/CMSIS/Include/core_cm4.h"
 529              		.file 7 "Drivers/CMSIS/Device/ST/STM32F3xx/Include/system_stm32f3xx.h"
 530              		.file 8 "Drivers/CMSIS/Device/ST/STM32F3xx/Include/stm32f303x8.h"
 531              		.file 9 "c:\\users\\victor\\desktop\\projet_robot\\arm-none-eabi\\include\\sys\\lock.h"
 532              		.file 10 "c:\\users\\victor\\desktop\\projet_robot\\arm-none-eabi\\include\\sys\\_types.h"
 533              		.file 11 "c:\\users\\victor\\desktop\\projet_robot\\lib\\gcc\\arm-none-eabi\\6.3.1\\include\\stdde
 534              		.file 12 "c:\\users\\victor\\desktop\\projet_robot\\arm-none-eabi\\include\\sys\\reent.h"
 535              		.file 13 "Drivers/STM32F3xx_HAL_Driver/Inc/stm32f3xx_hal_def.h"
 536              		.file 14 "Drivers/STM32F3xx_HAL_Driver/Inc/stm32f3xx_hal_dma.h"
 537              		.file 15 "Drivers/STM32F3xx_HAL_Driver/Inc/stm32f3xx_hal_uart.h"
 538              		.file 16 "Middlewares/Third_Party/FreeRTOS/Source/CMSIS_RTOS/cmsis_os.h"
 539              		.file 17 "Drivers/STM32F3xx_HAL_Driver/Inc/stm32f3xx_hal_gpio.h"
ARM GAS  C:\Users\Victor\AppData\Local\Temp\ccOdAD8W.s 			page 14

