ARM GAS  /tmp/ccMRA531.s 			page 1


   1              		.syntax unified
   2              		.cpu cortex-m4
   3              		.eabi_attribute 27, 1
   4              		.eabi_attribute 28, 1
   5              		.fpu fpv4-sp-d16
   6              		.eabi_attribute 20, 1
   7              		.eabi_attribute 21, 1
   8              		.eabi_attribute 23, 3
   9              		.eabi_attribute 24, 1
  10              		.eabi_attribute 25, 1
  11              		.eabi_attribute 26, 1
  12              		.eabi_attribute 30, 1
  13              		.eabi_attribute 34, 1
  14              		.eabi_attribute 18, 4
  15              		.thumb
  16              		.syntax unified
  17              		.file	"freertos.c"
  18              		.text
  19              	.Ltext0:
  20              		.cfi_sections	.debug_frame
  21              		.section	.text.alumer_gauche,"ax",%progbits
  22              		.align	2
  23              		.global	alumer_gauche
  24              		.thumb
  25              		.thumb_func
  27              	alumer_gauche:
  28              	.LFB129:
  29              		.file 1 "Src/freertos.c"
   1:Src/freertos.c **** /**
   2:Src/freertos.c ****   ******************************************************************************
   3:Src/freertos.c ****   * File Name          : freertos.c
   4:Src/freertos.c ****   * Description        : Code for freertos applications
   5:Src/freertos.c ****   ******************************************************************************
   6:Src/freertos.c ****   * This notice applies to any and all portions of this file
   7:Src/freertos.c ****   * that are not between comment pairs USER CODE BEGIN and
   8:Src/freertos.c ****   * USER CODE END. Other portions of this file, whether 
   9:Src/freertos.c ****   * inserted by the user or by software development tools
  10:Src/freertos.c ****   * are owned by their respective copyright owners.
  11:Src/freertos.c ****   *
  12:Src/freertos.c ****   * Copyright (c) 2017 STMicroelectronics International N.V. 
  13:Src/freertos.c ****   * All rights reserved.
  14:Src/freertos.c ****   *
  15:Src/freertos.c ****   * Redistribution and use in source and binary forms, with or without 
  16:Src/freertos.c ****   * modification, are permitted, provided that the following conditions are met:
  17:Src/freertos.c ****   *
  18:Src/freertos.c ****   * 1. Redistribution of source code must retain the above copyright notice, 
  19:Src/freertos.c ****   *    this list of conditions and the following disclaimer.
  20:Src/freertos.c ****   * 2. Redistributions in binary form must reproduce the above copyright notice,
  21:Src/freertos.c ****   *    this list of conditions and the following disclaimer in the documentation
  22:Src/freertos.c ****   *    and/or other materials provided with the distribution.
  23:Src/freertos.c ****   * 3. Neither the name of STMicroelectronics nor the names of other 
  24:Src/freertos.c ****   *    contributors to this software may be used to endorse or promote products 
  25:Src/freertos.c ****   *    derived from this software without specific written permission.
  26:Src/freertos.c ****   * 4. This software, including modifications and/or derivative works of this 
  27:Src/freertos.c ****   *    software, must execute solely and exclusively on microcontroller or
  28:Src/freertos.c ****   *    microprocessor devices manufactured by or for STMicroelectronics.
  29:Src/freertos.c ****   * 5. Redistribution and use of this software other than as permitted under 
ARM GAS  /tmp/ccMRA531.s 			page 2


  30:Src/freertos.c ****   *    this license is void and will automatically terminate your rights under 
  31:Src/freertos.c ****   *    this license. 
  32:Src/freertos.c ****   *
  33:Src/freertos.c ****   * THIS SOFTWARE IS PROVIDED BY STMICROELECTRONICS AND CONTRIBUTORS "AS IS" 
  34:Src/freertos.c ****   * AND ANY EXPRESS, IMPLIED OR STATUTORY WARRANTIES, INCLUDING, BUT NOT 
  35:Src/freertos.c ****   * LIMITED TO, THE IMPLIED WARRANTIES OF MERCHANTABILITY, FITNESS FOR A 
  36:Src/freertos.c ****   * PARTICULAR PURPOSE AND NON-INFRINGEMENT OF THIRD PARTY INTELLECTUAL PROPERTY
  37:Src/freertos.c ****   * RIGHTS ARE DISCLAIMED TO THE FULLEST EXTENT PERMITTED BY LAW. IN NO EVENT 
  38:Src/freertos.c ****   * SHALL STMICROELECTRONICS OR CONTRIBUTORS BE LIABLE FOR ANY DIRECT, INDIRECT,
  39:Src/freertos.c ****   * INCIDENTAL, SPECIAL, EXEMPLARY, OR CONSEQUENTIAL DAMAGES (INCLUDING, BUT NOT
  40:Src/freertos.c ****   * LIMITED TO, PROCUREMENT OF SUBSTITUTE GOODS OR SERVICES; LOSS OF USE, DATA, 
  41:Src/freertos.c ****   * OR PROFITS; OR BUSINESS INTERRUPTION) HOWEVER CAUSED AND ON ANY THEORY OF 
  42:Src/freertos.c ****   * LIABILITY, WHETHER IN CONTRACT, STRICT LIABILITY, OR TORT (INCLUDING 
  43:Src/freertos.c ****   * NEGLIGENCE OR OTHERWISE) ARISING IN ANY WAY OUT OF THE USE OF THIS SOFTWARE,
  44:Src/freertos.c ****   * EVEN IF ADVISED OF THE POSSIBILITY OF SUCH DAMAGE.
  45:Src/freertos.c ****   *
  46:Src/freertos.c ****   ******************************************************************************
  47:Src/freertos.c ****   */
  48:Src/freertos.c **** 
  49:Src/freertos.c **** /* Includes ------------------------------------------------------------------*/
  50:Src/freertos.c **** #include "FreeRTOS.h"
  51:Src/freertos.c **** #include "task.h"
  52:Src/freertos.c **** 
  53:Src/freertos.c **** /* USER CODE BEGIN Includes */     
  54:Src/freertos.c **** #include <string.h>
  55:Src/freertos.c **** #include "cmsis_os.h"
  56:Src/freertos.c **** #include "main.h"
  57:Src/freertos.c **** #include "stm32f3xx_hal.h"
  58:Src/freertos.c **** /* USER CODE END Includes */
  59:Src/freertos.c **** 
  60:Src/freertos.c **** /* Variables -----------------------------------------------------------------*/
  61:Src/freertos.c **** 
  62:Src/freertos.c **** /* USER CODE BEGIN Variables */
  63:Src/freertos.c **** extern TIM_HandleTypeDef htim3;
  64:Src/freertos.c **** /* USER CODE END Variables */
  65:Src/freertos.c **** 
  66:Src/freertos.c **** /* Function prototypes -------------------------------------------------------*/
  67:Src/freertos.c **** 
  68:Src/freertos.c **** /* USER CODE BEGIN FunctionPrototypes */
  69:Src/freertos.c **** 
  70:Src/freertos.c **** void alumer_gauche(int sens) {
  30              		.loc 1 70 0
  31              		.cfi_startproc
  32              		@ args = 0, pretend = 0, frame = 0
  33              		@ frame_needed = 0, uses_anonymous_args = 0
  34              	.LVL0:
  35 0000 38B5     		push	{r3, r4, r5, lr}
  36              	.LCFI0:
  37              		.cfi_def_cfa_offset 16
  38              		.cfi_offset 3, -16
  39              		.cfi_offset 4, -12
  40              		.cfi_offset 5, -8
  41              		.cfi_offset 14, -4
  71:Src/freertos.c ****     HAL_GPIO_WritePin(ain1_GPIO_Port, ain1_Pin, !sens);
  42              		.loc 1 71 0
  43 0002 0546     		mov	r5, r0
  44 0004 064C     		ldr	r4, .L3
ARM GAS  /tmp/ccMRA531.s 			page 3


  45 0006 B0FA80F2 		clz	r2, r0
  46 000a 5209     		lsrs	r2, r2, #5
  47 000c 0221     		movs	r1, #2
  48 000e 2046     		mov	r0, r4
  49              	.LVL1:
  50 0010 FFF7FEFF 		bl	HAL_GPIO_WritePin
  51              	.LVL2:
  72:Src/freertos.c ****     HAL_GPIO_WritePin(ain2_GPIO_Port, ain2_Pin, sens);
  52              		.loc 1 72 0
  53 0014 EAB2     		uxtb	r2, r5
  54 0016 0121     		movs	r1, #1
  55 0018 2046     		mov	r0, r4
  56 001a FFF7FEFF 		bl	HAL_GPIO_WritePin
  57              	.LVL3:
  58 001e 38BD     		pop	{r3, r4, r5, pc}
  59              	.LVL4:
  60              	.L4:
  61              		.align	2
  62              	.L3:
  63 0020 00140048 		.word	1207964672
  64              		.cfi_endproc
  65              	.LFE129:
  67              		.section	.text.alumer_droite,"ax",%progbits
  68              		.align	2
  69              		.global	alumer_droite
  70              		.thumb
  71              		.thumb_func
  73              	alumer_droite:
  74              	.LFB130:
  73:Src/freertos.c **** }
  74:Src/freertos.c **** 
  75:Src/freertos.c **** void alumer_droite(int sens) {
  75              		.loc 1 75 0
  76              		.cfi_startproc
  77              		@ args = 0, pretend = 0, frame = 0
  78              		@ frame_needed = 0, uses_anonymous_args = 0
  79              	.LVL5:
  80 0000 10B5     		push	{r4, lr}
  81              	.LCFI1:
  82              		.cfi_def_cfa_offset 8
  83              		.cfi_offset 4, -8
  84              		.cfi_offset 14, -4
  76:Src/freertos.c ****     HAL_GPIO_WritePin(bin1_GPIO_Port, bin1_Pin, !sens);
  85              		.loc 1 76 0
  86 0002 0446     		mov	r4, r0
  87 0004 B0FA80F2 		clz	r2, r0
  88 0008 5209     		lsrs	r2, r2, #5
  89 000a 4FF40061 		mov	r1, #2048
  90 000e 4FF09040 		mov	r0, #1207959552
  91              	.LVL6:
  92 0012 FFF7FEFF 		bl	HAL_GPIO_WritePin
  93              	.LVL7:
  77:Src/freertos.c ****     HAL_GPIO_WritePin(bin2_GPIO_Port, bin2_Pin, sens);
  94              		.loc 1 77 0
  95 0016 E2B2     		uxtb	r2, r4
  96 0018 2021     		movs	r1, #32
  97 001a 0248     		ldr	r0, .L7
ARM GAS  /tmp/ccMRA531.s 			page 4


  98 001c FFF7FEFF 		bl	HAL_GPIO_WritePin
  99              	.LVL8:
 100 0020 10BD     		pop	{r4, pc}
 101              	.LVL9:
 102              	.L8:
 103 0022 00BF     		.align	2
 104              	.L7:
 105 0024 00040048 		.word	1207960576
 106              		.cfi_endproc
 107              	.LFE130:
 109              		.section	.text.eteindre_gauche,"ax",%progbits
 110              		.align	2
 111              		.global	eteindre_gauche
 112              		.thumb
 113              		.thumb_func
 115              	eteindre_gauche:
 116              	.LFB131:
  78:Src/freertos.c **** }
  79:Src/freertos.c **** 
  80:Src/freertos.c **** void eteindre_gauche() {
 117              		.loc 1 80 0
 118              		.cfi_startproc
 119              		@ args = 0, pretend = 0, frame = 0
 120              		@ frame_needed = 0, uses_anonymous_args = 0
 121 0000 10B5     		push	{r4, lr}
 122              	.LCFI2:
 123              		.cfi_def_cfa_offset 8
 124              		.cfi_offset 4, -8
 125              		.cfi_offset 14, -4
  81:Src/freertos.c ****     HAL_GPIO_WritePin(ain1_GPIO_Port, ain1_Pin, 0);
 126              		.loc 1 81 0
 127 0002 064C     		ldr	r4, .L11
 128 0004 0022     		movs	r2, #0
 129 0006 0221     		movs	r1, #2
 130 0008 2046     		mov	r0, r4
 131 000a FFF7FEFF 		bl	HAL_GPIO_WritePin
 132              	.LVL10:
  82:Src/freertos.c ****     HAL_GPIO_WritePin(ain2_GPIO_Port, ain2_Pin, 0);
 133              		.loc 1 82 0
 134 000e 0022     		movs	r2, #0
 135 0010 0121     		movs	r1, #1
 136 0012 2046     		mov	r0, r4
 137 0014 FFF7FEFF 		bl	HAL_GPIO_WritePin
 138              	.LVL11:
 139 0018 10BD     		pop	{r4, pc}
 140              	.L12:
 141 001a 00BF     		.align	2
 142              	.L11:
 143 001c 00140048 		.word	1207964672
 144              		.cfi_endproc
 145              	.LFE131:
 147              		.section	.text.eteindre_droite,"ax",%progbits
 148              		.align	2
 149              		.global	eteindre_droite
 150              		.thumb
 151              		.thumb_func
 153              	eteindre_droite:
ARM GAS  /tmp/ccMRA531.s 			page 5


 154              	.LFB132:
  83:Src/freertos.c **** }
  84:Src/freertos.c **** 
  85:Src/freertos.c **** void eteindre_droite() {
 155              		.loc 1 85 0
 156              		.cfi_startproc
 157              		@ args = 0, pretend = 0, frame = 0
 158              		@ frame_needed = 0, uses_anonymous_args = 0
 159 0000 08B5     		push	{r3, lr}
 160              	.LCFI3:
 161              		.cfi_def_cfa_offset 8
 162              		.cfi_offset 3, -8
 163              		.cfi_offset 14, -4
  86:Src/freertos.c ****     HAL_GPIO_WritePin(bin1_GPIO_Port, bin1_Pin, 0);
 164              		.loc 1 86 0
 165 0002 0022     		movs	r2, #0
 166 0004 4FF40061 		mov	r1, #2048
 167 0008 4FF09040 		mov	r0, #1207959552
 168 000c FFF7FEFF 		bl	HAL_GPIO_WritePin
 169              	.LVL12:
  87:Src/freertos.c ****     HAL_GPIO_WritePin(bin2_GPIO_Port, bin2_Pin, 0);
 170              		.loc 1 87 0
 171 0010 0022     		movs	r2, #0
 172 0012 2021     		movs	r1, #32
 173 0014 0148     		ldr	r0, .L15
 174 0016 FFF7FEFF 		bl	HAL_GPIO_WritePin
 175              	.LVL13:
 176 001a 08BD     		pop	{r3, pc}
 177              	.L16:
 178              		.align	2
 179              	.L15:
 180 001c 00040048 		.word	1207960576
 181              		.cfi_endproc
 182              	.LFE132:
 184              		.section	.text.avancer_dix_cm,"ax",%progbits
 185              		.align	2
 186              		.global	avancer_dix_cm
 187              		.thumb
 188              		.thumb_func
 190              	avancer_dix_cm:
 191              	.LFB133:
  88:Src/freertos.c **** }
  89:Src/freertos.c **** 
  90:Src/freertos.c **** void avancer_dix_cm() {
 192              		.loc 1 90 0
 193              		.cfi_startproc
 194              		@ args = 0, pretend = 0, frame = 0
 195              		@ frame_needed = 0, uses_anonymous_args = 0
 196 0000 08B5     		push	{r3, lr}
 197              	.LCFI4:
 198              		.cfi_def_cfa_offset 8
 199              		.cfi_offset 3, -8
 200              		.cfi_offset 14, -4
  91:Src/freertos.c ****     alumer_droite(1);
 201              		.loc 1 91 0
 202 0002 0120     		movs	r0, #1
 203 0004 FFF7FEFF 		bl	alumer_droite
ARM GAS  /tmp/ccMRA531.s 			page 6


 204              	.LVL14:
  92:Src/freertos.c ****     alumer_gauche(1);
 205              		.loc 1 92 0
 206 0008 0120     		movs	r0, #1
 207 000a FFF7FEFF 		bl	alumer_gauche
 208              	.LVL15:
  93:Src/freertos.c ****     //accelerer();
  94:Src/freertos.c ****     osDelay(2000);
 209              		.loc 1 94 0
 210 000e 4FF4FA60 		mov	r0, #2000
 211 0012 FFF7FEFF 		bl	osDelay
 212              	.LVL16:
  95:Src/freertos.c ****     //deccelerer();
  96:Src/freertos.c ****     eteindre_droite();
 213              		.loc 1 96 0
 214 0016 FFF7FEFF 		bl	eteindre_droite
 215              	.LVL17:
  97:Src/freertos.c ****     eteindre_gauche();
 216              		.loc 1 97 0
 217 001a FFF7FEFF 		bl	eteindre_gauche
 218              	.LVL18:
 219 001e 08BD     		pop	{r3, pc}
 220              		.cfi_endproc
 221              	.LFE133:
 223              		.section	.text.reculer_dix_cm,"ax",%progbits
 224              		.align	2
 225              		.global	reculer_dix_cm
 226              		.thumb
 227              		.thumb_func
 229              	reculer_dix_cm:
 230              	.LFB134:
  98:Src/freertos.c **** }
  99:Src/freertos.c **** 
 100:Src/freertos.c **** void reculer_dix_cm() {
 231              		.loc 1 100 0
 232              		.cfi_startproc
 233              		@ args = 0, pretend = 0, frame = 0
 234              		@ frame_needed = 0, uses_anonymous_args = 0
 235 0000 08B5     		push	{r3, lr}
 236              	.LCFI5:
 237              		.cfi_def_cfa_offset 8
 238              		.cfi_offset 3, -8
 239              		.cfi_offset 14, -4
 101:Src/freertos.c ****     alumer_droite(0);
 240              		.loc 1 101 0
 241 0002 0020     		movs	r0, #0
 242 0004 FFF7FEFF 		bl	alumer_droite
 243              	.LVL19:
 102:Src/freertos.c ****     alumer_gauche(0);
 244              		.loc 1 102 0
 245 0008 0020     		movs	r0, #0
 246 000a FFF7FEFF 		bl	alumer_gauche
 247              	.LVL20:
 103:Src/freertos.c ****     //accelerer();
 104:Src/freertos.c ****     osDelay(2000);
 248              		.loc 1 104 0
 249 000e 4FF4FA60 		mov	r0, #2000
ARM GAS  /tmp/ccMRA531.s 			page 7


 250 0012 FFF7FEFF 		bl	osDelay
 251              	.LVL21:
 105:Src/freertos.c ****     //deccelerer();
 106:Src/freertos.c ****     eteindre_droite();
 252              		.loc 1 106 0
 253 0016 FFF7FEFF 		bl	eteindre_droite
 254              	.LVL22:
 107:Src/freertos.c ****     eteindre_gauche();
 255              		.loc 1 107 0
 256 001a FFF7FEFF 		bl	eteindre_gauche
 257              	.LVL23:
 258 001e 08BD     		pop	{r3, pc}
 259              		.cfi_endproc
 260              	.LFE134:
 262              		.section	.text.tourner_droite,"ax",%progbits
 263              		.align	2
 264              		.global	tourner_droite
 265              		.thumb
 266              		.thumb_func
 268              	tourner_droite:
 269              	.LFB135:
 108:Src/freertos.c **** 
 109:Src/freertos.c **** }
 110:Src/freertos.c **** 
 111:Src/freertos.c **** void tourner_droite() {
 270              		.loc 1 111 0
 271              		.cfi_startproc
 272              		@ args = 0, pretend = 0, frame = 0
 273              		@ frame_needed = 0, uses_anonymous_args = 0
 274 0000 08B5     		push	{r3, lr}
 275              	.LCFI6:
 276              		.cfi_def_cfa_offset 8
 277              		.cfi_offset 3, -8
 278              		.cfi_offset 14, -4
 112:Src/freertos.c ****     alumer_gauche(1);
 279              		.loc 1 112 0
 280 0002 0120     		movs	r0, #1
 281 0004 FFF7FEFF 		bl	alumer_gauche
 282              	.LVL24:
 113:Src/freertos.c ****     alumer_droite(0);
 283              		.loc 1 113 0
 284 0008 0020     		movs	r0, #0
 285 000a FFF7FEFF 		bl	alumer_droite
 286              	.LVL25:
 114:Src/freertos.c ****     //accelerer();
 115:Src/freertos.c ****     osDelay(1000);
 287              		.loc 1 115 0
 288 000e 4FF47A70 		mov	r0, #1000
 289 0012 FFF7FEFF 		bl	osDelay
 290              	.LVL26:
 116:Src/freertos.c ****     //deccelerer();
 117:Src/freertos.c ****     eteindre_droite();
 291              		.loc 1 117 0
 292 0016 FFF7FEFF 		bl	eteindre_droite
 293              	.LVL27:
 118:Src/freertos.c ****     eteindre_gauche();
 294              		.loc 1 118 0
ARM GAS  /tmp/ccMRA531.s 			page 8


 295 001a FFF7FEFF 		bl	eteindre_gauche
 296              	.LVL28:
 297 001e 08BD     		pop	{r3, pc}
 298              		.cfi_endproc
 299              	.LFE135:
 301              		.section	.text.tourner_gauche,"ax",%progbits
 302              		.align	2
 303              		.global	tourner_gauche
 304              		.thumb
 305              		.thumb_func
 307              	tourner_gauche:
 308              	.LFB136:
 119:Src/freertos.c **** }
 120:Src/freertos.c **** 
 121:Src/freertos.c **** void tourner_gauche() {
 309              		.loc 1 121 0
 310              		.cfi_startproc
 311              		@ args = 0, pretend = 0, frame = 0
 312              		@ frame_needed = 0, uses_anonymous_args = 0
 313 0000 08B5     		push	{r3, lr}
 314              	.LCFI7:
 315              		.cfi_def_cfa_offset 8
 316              		.cfi_offset 3, -8
 317              		.cfi_offset 14, -4
 122:Src/freertos.c ****     alumer_droite(1);
 318              		.loc 1 122 0
 319 0002 0120     		movs	r0, #1
 320 0004 FFF7FEFF 		bl	alumer_droite
 321              	.LVL29:
 123:Src/freertos.c ****     alumer_gauche(0);
 322              		.loc 1 123 0
 323 0008 0020     		movs	r0, #0
 324 000a FFF7FEFF 		bl	alumer_gauche
 325              	.LVL30:
 124:Src/freertos.c ****     //accelerer();
 125:Src/freertos.c ****     osDelay(1000);
 326              		.loc 1 125 0
 327 000e 4FF47A70 		mov	r0, #1000
 328 0012 FFF7FEFF 		bl	osDelay
 329              	.LVL31:
 126:Src/freertos.c ****     //deccelerer();
 127:Src/freertos.c ****     eteindre_droite();
 330              		.loc 1 127 0
 331 0016 FFF7FEFF 		bl	eteindre_droite
 332              	.LVL32:
 128:Src/freertos.c ****     eteindre_gauche();
 333              		.loc 1 128 0
 334 001a FFF7FEFF 		bl	eteindre_gauche
 335              	.LVL33:
 336 001e 08BD     		pop	{r3, pc}
 337              		.cfi_endproc
 338              	.LFE136:
 340              		.section	.text.accelerer,"ax",%progbits
 341              		.align	2
 342              		.global	accelerer
 343              		.thumb
 344              		.thumb_func
ARM GAS  /tmp/ccMRA531.s 			page 9


 346              	accelerer:
 347              	.LFB137:
 129:Src/freertos.c **** }
 130:Src/freertos.c **** 
 131:Src/freertos.c **** void accelerer() {
 348              		.loc 1 131 0
 349              		.cfi_startproc
 350              		@ args = 0, pretend = 0, frame = 0
 351              		@ frame_needed = 0, uses_anonymous_args = 0
 352 0000 10B5     		push	{r4, lr}
 353              	.LCFI8:
 354              		.cfi_def_cfa_offset 8
 355              		.cfi_offset 4, -8
 356              		.cfi_offset 14, -4
 357              	.LVL34:
 132:Src/freertos.c ****     int pwm = 0;
 358              		.loc 1 132 0
 359 0002 0024     		movs	r4, #0
 133:Src/freertos.c ****     while (pwm != 320) {
 360              		.loc 1 133 0
 361 0004 07E0     		b	.L26
 362              	.LVL35:
 363              	.L27:
 134:Src/freertos.c ****         __HAL_TIM_SET_COMPARE(&htim3, TIM_CHANNEL_1, pwm);
 364              		.loc 1 134 0
 365 0006 064B     		ldr	r3, .L29
 366 0008 1B68     		ldr	r3, [r3]
 367 000a 5C63     		str	r4, [r3, #52]
 135:Src/freertos.c ****         __HAL_TIM_SET_COMPARE(&htim3, TIM_CHANNEL_4, pwm);
 368              		.loc 1 135 0
 369 000c 1C64     		str	r4, [r3, #64]
 136:Src/freertos.c ****         pwm += 20;
 370              		.loc 1 136 0
 371 000e 1434     		adds	r4, r4, #20
 372              	.LVL36:
 137:Src/freertos.c ****         osDelay(100);
 373              		.loc 1 137 0
 374 0010 6420     		movs	r0, #100
 375 0012 FFF7FEFF 		bl	osDelay
 376              	.LVL37:
 377              	.L26:
 133:Src/freertos.c ****         __HAL_TIM_SET_COMPARE(&htim3, TIM_CHANNEL_1, pwm);
 378              		.loc 1 133 0
 379 0016 B4F5A07F 		cmp	r4, #320
 380 001a F4D1     		bne	.L27
 138:Src/freertos.c ****     }
 139:Src/freertos.c **** }
 381              		.loc 1 139 0
 382 001c 10BD     		pop	{r4, pc}
 383              	.LVL38:
 384              	.L30:
 385 001e 00BF     		.align	2
 386              	.L29:
 387 0020 00000000 		.word	htim3
 388              		.cfi_endproc
 389              	.LFE137:
 391              		.section	.text.deccelerer,"ax",%progbits
ARM GAS  /tmp/ccMRA531.s 			page 10


 392              		.align	2
 393              		.global	deccelerer
 394              		.thumb
 395              		.thumb_func
 397              	deccelerer:
 398              	.LFB138:
 140:Src/freertos.c **** 
 141:Src/freertos.c **** void deccelerer() {
 399              		.loc 1 141 0
 400              		.cfi_startproc
 401              		@ args = 0, pretend = 0, frame = 0
 402              		@ frame_needed = 0, uses_anonymous_args = 0
 403 0000 10B5     		push	{r4, lr}
 404              	.LCFI9:
 405              		.cfi_def_cfa_offset 8
 406              		.cfi_offset 4, -8
 407              		.cfi_offset 14, -4
 408              	.LVL39:
 142:Src/freertos.c ****     int pwm = 320;
 409              		.loc 1 142 0
 410 0002 4FF4A074 		mov	r4, #320
 143:Src/freertos.c ****     while (pwm != 0) {
 411              		.loc 1 143 0
 412 0006 07E0     		b	.L32
 413              	.LVL40:
 414              	.L33:
 144:Src/freertos.c ****         __HAL_TIM_SET_COMPARE(&htim3, TIM_CHANNEL_1, pwm);
 415              		.loc 1 144 0
 416 0008 054B     		ldr	r3, .L35
 417 000a 1B68     		ldr	r3, [r3]
 418 000c 5C63     		str	r4, [r3, #52]
 145:Src/freertos.c ****         __HAL_TIM_SET_COMPARE(&htim3, TIM_CHANNEL_4, pwm);
 419              		.loc 1 145 0
 420 000e 1C64     		str	r4, [r3, #64]
 146:Src/freertos.c ****         pwm -= 20;
 421              		.loc 1 146 0
 422 0010 143C     		subs	r4, r4, #20
 423              	.LVL41:
 147:Src/freertos.c ****         osDelay(100);
 424              		.loc 1 147 0
 425 0012 6420     		movs	r0, #100
 426 0014 FFF7FEFF 		bl	osDelay
 427              	.LVL42:
 428              	.L32:
 143:Src/freertos.c ****         __HAL_TIM_SET_COMPARE(&htim3, TIM_CHANNEL_1, pwm);
 429              		.loc 1 143 0
 430 0018 002C     		cmp	r4, #0
 431 001a F5D1     		bne	.L33
 148:Src/freertos.c ****     }
 149:Src/freertos.c **** }
 432              		.loc 1 149 0
 433 001c 10BD     		pop	{r4, pc}
 434              	.LVL43:
 435              	.L36:
 436 001e 00BF     		.align	2
 437              	.L35:
 438 0020 00000000 		.word	htim3
ARM GAS  /tmp/ccMRA531.s 			page 11


 439              		.cfi_endproc
 440              	.LFE138:
 442              		.section	.text.motor,"ax",%progbits
 443              		.align	2
 444              		.global	motor
 445              		.thumb
 446              		.thumb_func
 448              	motor:
 449              	.LFB139:
 150:Src/freertos.c **** 
 151:Src/freertos.c **** /* USER CODE END FunctionPrototypes */
 152:Src/freertos.c **** 
 153:Src/freertos.c **** /* Hook prototypes */
 154:Src/freertos.c **** 
 155:Src/freertos.c **** /* USER CODE BEGIN Application */
 156:Src/freertos.c **** void motor(void const * argument)
 157:Src/freertos.c **** {
 450              		.loc 1 157 0
 451              		.cfi_startproc
 452              		@ Volatile: function does not return.
 453              		@ args = 0, pretend = 0, frame = 0
 454              		@ frame_needed = 0, uses_anonymous_args = 0
 455              	.LVL44:
 456 0000 08B5     		push	{r3, lr}
 457              	.LCFI10:
 458              		.cfi_def_cfa_offset 8
 459              		.cfi_offset 3, -8
 460              		.cfi_offset 14, -4
 158:Src/freertos.c ****   /* USER CODE BEGIN motor */
 159:Src/freertos.c ****   HAL_GPIO_WritePin(stby_GPIO_Port, stby_Pin, 1);
 461              		.loc 1 159 0
 462 0002 0122     		movs	r2, #1
 463 0004 4FF48071 		mov	r1, #256
 464 0008 4FF09040 		mov	r0, #1207959552
 465              	.LVL45:
 466 000c FFF7FEFF 		bl	HAL_GPIO_WritePin
 467              	.LVL46:
 160:Src/freertos.c ****   HAL_TIM_Base_Start(&htim3);
 468              		.loc 1 160 0
 469 0010 124C     		ldr	r4, .L40
 470 0012 2046     		mov	r0, r4
 471 0014 FFF7FEFF 		bl	HAL_TIM_Base_Start
 472              	.LVL47:
 161:Src/freertos.c ****   HAL_TIM_PWM_Start(&htim3, TIM_CHANNEL_1);
 473              		.loc 1 161 0
 474 0018 0021     		movs	r1, #0
 475 001a 2046     		mov	r0, r4
 476 001c FFF7FEFF 		bl	HAL_TIM_PWM_Start
 477              	.LVL48:
 162:Src/freertos.c ****   HAL_TIM_PWM_Start(&htim3, TIM_CHANNEL_4);
 478              		.loc 1 162 0
 479 0020 0C21     		movs	r1, #12
 480 0022 2046     		mov	r0, r4
 481 0024 FFF7FEFF 		bl	HAL_TIM_PWM_Start
 482              	.LVL49:
 483              	.L38:
 163:Src/freertos.c **** 
ARM GAS  /tmp/ccMRA531.s 			page 12


 164:Src/freertos.c ****   /* Infinite loop */
 165:Src/freertos.c ****   for(;;)
 166:Src/freertos.c ****   {
 167:Src/freertos.c ****     avancer_dix_cm();
 484              		.loc 1 167 0 discriminator 1
 485 0028 FFF7FEFF 		bl	avancer_dix_cm
 486              	.LVL50:
 168:Src/freertos.c ****     osDelay(500);
 487              		.loc 1 168 0 discriminator 1
 488 002c 4FF4FA70 		mov	r0, #500
 489 0030 FFF7FEFF 		bl	osDelay
 490              	.LVL51:
 169:Src/freertos.c ****     reculer_dix_cm();
 491              		.loc 1 169 0 discriminator 1
 492 0034 FFF7FEFF 		bl	reculer_dix_cm
 493              	.LVL52:
 170:Src/freertos.c ****     osDelay(500);
 494              		.loc 1 170 0 discriminator 1
 495 0038 4FF4FA70 		mov	r0, #500
 496 003c FFF7FEFF 		bl	osDelay
 497              	.LVL53:
 171:Src/freertos.c ****     tourner_gauche();
 498              		.loc 1 171 0 discriminator 1
 499 0040 FFF7FEFF 		bl	tourner_gauche
 500              	.LVL54:
 172:Src/freertos.c ****     osDelay(500);
 501              		.loc 1 172 0 discriminator 1
 502 0044 4FF4FA70 		mov	r0, #500
 503 0048 FFF7FEFF 		bl	osDelay
 504              	.LVL55:
 173:Src/freertos.c ****     tourner_droite();
 505              		.loc 1 173 0 discriminator 1
 506 004c FFF7FEFF 		bl	tourner_droite
 507              	.LVL56:
 174:Src/freertos.c ****     osDelay(500);
 508              		.loc 1 174 0 discriminator 1
 509 0050 4FF4FA70 		mov	r0, #500
 510 0054 FFF7FEFF 		bl	osDelay
 511              	.LVL57:
 512 0058 E6E7     		b	.L38
 513              	.L41:
 514 005a 00BF     		.align	2
 515              	.L40:
 516 005c 00000000 		.word	htim3
 517              		.cfi_endproc
 518              	.LFE139:
 520              		.text
 521              	.Letext0:
 522              		.file 2 "/usr/include/newlib/machine/_default_types.h"
 523              		.file 3 "/usr/include/newlib/sys/_stdint.h"
 524              		.file 4 "Drivers/CMSIS/Device/ST/STM32F3xx/Include/stm32f303x8.h"
 525              		.file 5 "Drivers/STM32F3xx_HAL_Driver/Inc/stm32f3xx_hal_def.h"
 526              		.file 6 "Drivers/STM32F3xx_HAL_Driver/Inc/stm32f3xx_hal_dma.h"
 527              		.file 7 "Drivers/STM32F3xx_HAL_Driver/Inc/stm32f3xx_hal_tim.h"
 528              		.file 8 "Drivers/CMSIS/Include/core_cm4.h"
 529              		.file 9 "Drivers/STM32F3xx_HAL_Driver/Inc/stm32f3xx_hal_gpio.h"
 530              		.file 10 "Middlewares/Third_Party/FreeRTOS/Source/CMSIS_RTOS/cmsis_os.h"
ARM GAS  /tmp/ccMRA531.s 			page 13


ARM GAS  /tmp/ccMRA531.s 			page 14

